Component: ARM Compiler 5.06 update 7 (build 960) Tool: armlink [4d3601]

==============================================================================

Section Cross References

    main.o(.text) refers to printfa.o(i.__0printf) for __2printf
    main.o(.text) refers to tasks.o(.text) for vTaskDelay
    main.o(.text) refers to esp8266.o(.text) for ESP8266_OnLineInit
    main.o(.text) refers to memseta.o(.text) for __aeabi_memclr4
    main.o(.text) refers to esp8266_gettime.o(.text) for ESP8266_GetTimeFunc
    main.o(.text) refers to queue.o(.text) for xQueueGenericSend
    main.o(.text) refers to mq135.o(.text) for Get_MQ135_DO_Level
    main.o(.text) refers to mq7.o(.text) for Get_MQ7_AO_Voltage
    main.o(.text) refers to mq2.o(.text) for Get_MQ2_AO_Voltage
    main.o(.text) refers to dht11.o(.text) for DHT11_GetData
    main.o(.text) refers to adc.o(.text) for ADC3_IN5_GetLightVal
    main.o(.text) refers to rtc.o(.text) for RTC_SetDateTime
    main.o(.text) refers to stm32f4xx_rtc.o(.text) for RTC_GetTime
    main.o(.text) refers to atoi.o(.text) for atoi
    main.o(.text) refers to memmovea.o(.text) for __aeabi_memcpy4
    main.o(.text) refers to strcmp.o(.text) for strcmp
    main.o(.text) refers to lv_img.o(.text) for lv_img_create
    main.o(.text) refers to lv_obj_pos.o(.text) for lv_obj_align
    main.o(.text) refers to lv_label.o(.text) for lv_label_create
    main.o(.text) refers to lv_obj_style_gen.o(.text) for lv_obj_set_style_text_color
    main.o(.text) refers to main.o(.data) for .data
    main.o(.text) refers to main.o(.constdata) for .constdata
    main.o(.text) refers to chezaibeijing.o(.constdata) for image_chezaibeijing
    main.o(.text) refers to printfa.o(i.__0sprintf) for __2sprintf
    main.o(.text) refers to f2d.o(.text) for __aeabi_f2d
    main.o(.text) refers to lv_timer.o(.text) for lv_timer_handler
    main.o(.text) refers to uart.o(.text) for UART1_Init
    main.o(.text) refers to led.o(.text) for LED_Init
    main.o(.text) refers to buzzer.o(.text) for BUZZER_Init
    main.o(.text) refers to key.o(.text) for KEY_Init
    main.o(.text) refers to lv_obj.o(.text) for lv_init
    main.o(.text) refers to lv_port_disp.o(.text) for lv_port_disp_init
    main.o(.text) refers to lv_port_indev.o(.text) for lv_port_indev_init
    main.o(.text) refers to misc.o(.text) for NVIC_PriorityGroupConfig
    main.o(.text) refers to event_groups.o(.text) for xEventGroupCreate
    main.o(.text) refers to lv_hal_tick.o(.text) for lv_tick_inc
    main.o(.text) refers to lv_hal_disp.o(.text) for lv_disp_get_default
    main.o(.text) refers to lv_disp.o(.text) for lv_disp_get_scr_act
    main.o(.text) refers to system_stm32f4xx.o(.data) for SystemCoreClock
    main.o(.constdata) refers to main.o(.conststring) for .conststring
    system_stm32f4xx.o(.text) refers to system_stm32f4xx.o(.data) for .data
    lvgl_font.o(.constdata) refers to lvgl_font.o(.constdata) for unicode_list_1
    lvgl_font.o(.constdata) refers to lvgl_font.o(.constdata) for glyph_bitmap
    lvgl_font.o(.constdata) refers to lvgl_font.o(.constdata) for glyph_dsc
    lvgl_font.o(.constdata) refers to lvgl_font.o(.constdata) for cmaps
    lvgl_font.o(.constdata) refers to lvgl_font.o(.data) for cache
    lvgl_font.o(.constdata) refers to lv_font_fmt_txt.o(.text) for lv_font_get_glyph_dsc_fmt_txt
    lvgl_font.o(.constdata) refers to lvgl_font.o(.constdata) for font_dsc
    tupian.o(.constdata) refers to tupian.o(.constdata) for img_tupian_map
    xiangyu.o(.constdata) refers to xiangyu.o(.constdata) for img_xiangyu_map
    chezaibeijing.o(.constdata) refers to chezaibeijing.o(.constdata) for img_chezaibeijing_map
    buzzer.o(.text) refers to stm32f4xx_rcc.o(.text) for RCC_AHB1PeriphClockCmd
    buzzer.o(.text) refers to stm32f4xx_gpio.o(.text) for GPIO_Init
    buzzer.o(.text) refers to delay.o(.text) for delay_ms
    key.o(.text) refers to stm32f4xx_rcc.o(.text) for RCC_AHB1PeriphClockCmd
    key.o(.text) refers to stm32f4xx_gpio.o(.text) for GPIO_Init
    led.o(.text) refers to stm32f4xx_rcc.o(.text) for RCC_AHB1PeriphClockCmd
    led.o(.text) refers to stm32f4xx_gpio.o(.text) for GPIO_Init
    led.o(.text) refers to delay.o(.text) for delay_ms
    exti.o(.text) refers to key.o(.text) for KEY_Init
    exti.o(.text) refers to stm32f4xx_rcc.o(.text) for RCC_APB2PeriphClockCmd
    exti.o(.text) refers to stm32f4xx_syscfg.o(.text) for SYSCFG_EXTILineConfig
    exti.o(.text) refers to stm32f4xx_exti.o(.text) for EXTI_Init
    exti.o(.text) refers to misc.o(.text) for NVIC_Init
    exti.o(.text) refers to delay.o(.text) for DELAY_MyNms
    timer.o(.text) refers to stm32f4xx_rcc.o(.text) for RCC_APB1PeriphClockCmd
    timer.o(.text) refers to misc.o(.text) for NVIC_Init
    timer.o(.text) refers to stm32f4xx_tim.o(.text) for TIM_TimeBaseInit
    timer.o(.text) refers to lv_hal_tick.o(.text) for lv_tick_inc
    at24cxx.o(.text) refers to iic.o(.text) for IIC_Init
    at24cxx.o(.text) refers to delay.o(.text) for delay_ms
    iic.o(.text) refers to stm32f4xx_rcc.o(.text) for RCC_AHB1PeriphClockCmd
    iic.o(.text) refers to stm32f4xx_gpio.o(.text) for GPIO_Init
    iic.o(.text) refers to delay.o(.text) for delay_us
    lcd_font.o(.data) refers to lcd_font.o(.conststring) for .conststring
    lcd_screen.o(.text) refers to delay.o(.text) for delay_us
    lcd_screen.o(.text) refers to lcd_screen.o(.bss) for .bss
    lcd_screen.o(.text) refers to dfltui.o(.text) for __aeabi_ui2d
    lcd_screen.o(.text) refers to dmul.o(.text) for __aeabi_dmul
    lcd_screen.o(.text) refers to dfixui.o(.text) for __aeabi_d2uiz
    lcd_screen.o(.text) refers to lcd_screen.o(.data) for .data
    lcd_screen.o(.text) refers to stm32f4xx_rcc.o(.text) for RCC_AHB1PeriphClockCmd
    lcd_screen.o(.text) refers to stm32f4xx_gpio.o(.text) for GPIO_Init
    lcd_screen.o(.text) refers to stm32f4xx_fsmc.o(.text) for FSMC_NORSRAMInit
    lcd_screen.o(.text) refers to printfa.o(i.__0printf) for __2printf
    lcd_screen.o(.text) refers to lcd_font.o(.constdata) for asc2_2412
    lcd_screen.o(.text) refers to lcd_font.o(.constdata) for asc2_1206
    lcd_screen.o(.text) refers to lcd_font.o(.constdata) for asc2_1608
    lcd_screen.o(.text) refers to strncmp.o(.text) for strncmp
    lcd_screen.o(.text) refers to lcd_font.o(.constdata) for g_font_dot_matrix_32
    lcd_screen.o(.text) refers to lcd_font.o(.data) for g_font_dot_matrix_32_index
    lcd_touch.o(.text) refers to delay.o(.text) for delay_us
    lcd_touch.o(.text) refers to lcd_screen.o(.text) for LCD_DrawLine
    lcd_touch.o(.text) refers to at24cxx.o(.text) for AT24CXX_WriteLenByte
    lcd_touch.o(.text) refers to f2d.o(.text) for __aeabi_f2d
    lcd_touch.o(.text) refers to printfa.o(i.__0printf) for __2printf
    lcd_touch.o(.text) refers to lcd_touch.o(.data) for .data
    lcd_touch.o(.text) refers to lcd_screen.o(.data) for POINT_COLOR
    lcd_touch.o(.text) refers to dfltui.o(.text) for __aeabi_ui2d
    lcd_touch.o(.text) refers to sqrt.o(i.__hardfp_sqrt) for __hardfp_sqrt
    lcd_touch.o(.text) refers to dfixui.o(.text) for __aeabi_d2uiz
    lcd_touch.o(.text) refers to cdcmple.o(.text) for __aeabi_cdcmple
    lcd_touch.o(.text) refers to cdrcmple.o(.text) for __aeabi_cdrcmple
    lcd_touch.o(.text) refers to dmul.o(.text) for __aeabi_dmul
    lcd_touch.o(.text) refers to lcd_screen.o(.bss) for lcddev
    lcd_touch.o(.text) refers to lcd_touch.o(.constdata) for .constdata
    lcd_touch.o(.text) refers to stm32f4xx_rcc.o(.text) for RCC_AHB1PeriphClockCmd
    lcd_touch.o(.text) refers to stm32f4xx_gpio.o(.text) for GPIO_Init
    lcd_touch.o(.constdata) refers to lcd_touch.o(.conststring) for .conststring
    lcd_touch.o(.data) refers to lcd_touch.o(.text) for TP_Init
    adc.o(.text) refers to stm32f4xx_rcc.o(.text) for RCC_AHB1PeriphClockCmd
    adc.o(.text) refers to stm32f4xx_gpio.o(.text) for GPIO_Init
    adc.o(.text) refers to stm32f4xx_adc.o(.text) for ADC_CommonInit
    adc.o(.text) refers to adc.o(.data) for .data
    dht11.o(.text) refers to stm32f4xx_rcc.o(.text) for RCC_AHB1PeriphClockCmd
    dht11.o(.text) refers to stm32f4xx_gpio.o(.text) for GPIO_Init
    dht11.o(.text) refers to delay.o(.text) for delay_ms
    asrpro.o(.text) refers to uart.o(.text) for UART2_Init
    mq2.o(.text) refers to stm32f4xx_rcc.o(.text) for RCC_AHB1PeriphClockCmd
    mq2.o(.text) refers to stm32f4xx_gpio.o(.text) for GPIO_Init
    mq2.o(.text) refers to stm32f4xx_adc.o(.text) for ADC_CommonInit
    mq7.o(.text) refers to stm32f4xx_rcc.o(.text) for RCC_AHB1PeriphClockCmd
    mq7.o(.text) refers to stm32f4xx_gpio.o(.text) for GPIO_Init
    mq7.o(.text) refers to stm32f4xx_adc.o(.text) for ADC_CommonInit
    mq135.o(.text) refers to stm32f4xx_rcc.o(.text) for RCC_AHB1PeriphClockCmd
    mq135.o(.text) refers to stm32f4xx_gpio.o(.text) for GPIO_Init
    esp8266.o(.text) refers to delay.o(.text) for delay_ms
    esp8266.o(.text) refers to strstr.o(.text) for strstr
    esp8266.o(.text) refers to my_lib.o(.text) for MY_LIB_ClearArray
    esp8266.o(.text) refers to uart.o(.text) for UART3_SendStr
    esp8266.o(.text) refers to printfa.o(i.__0printf) for __2printf
    esp8266.o(.text) refers to printfa.o(i.__0sprintf) for __2sprintf
    esp8266.o(.text) refers to uart.o(.bss) for u3_recvbuf
    esp8266.o(.text) refers to uart.o(.data) for u3_count
    esp8266.o(.text) refers to esp8266.o(.data) for .data
    esp8266_gettime.o(.text) refers to _scanf_str.o(.text) for _scanf_string
    esp8266_gettime.o(.text) refers to memseta.o(.text) for __aeabi_memclr4
    esp8266_gettime.o(.text) refers to esp8266.o(.text) for ESP8266_ConnectServer
    esp8266_gettime.o(.text) refers to printfa.o(i.__0printf) for __2printf
    esp8266_gettime.o(.text) refers to delay.o(.text) for delay_ms
    esp8266_gettime.o(.text) refers to strstr.o(.text) for strstr
    esp8266_gettime.o(.text) refers to __0sscanf.o(.text) for __0sscanf
    esp8266_gettime.o(.text) refers to my_lib.o(.text) for MY_LIB_ClearArray
    esp8266_gettime.o(.text) refers to uart.o(.bss) for u3_recvbuf
    esp8266_gettime.o(.text) refers to uart.o(.data) for u3_count
    esp8266_getweather.o(.text) refers to memseta.o(.text) for __aeabi_memclr
    esp8266_getweather.o(.text) refers to strstr.o(.text) for strstr
    esp8266_getweather.o(.text) refers to strchr.o(.text) for strchr
    esp8266_getweather.o(.text) refers to strncpy.o(.text) for strncpy
    esp8266_getweather.o(.text) refers to memmovea.o(.text) for __aeabi_memcpy4
    esp8266_getweather.o(.text) refers to esp8266.o(.text) for ESP8266_ConnectServer
    esp8266_getweather.o(.text) refers to printfa.o(i.__0printf) for __2printf
    esp8266_getweather.o(.text) refers to delay.o(.text) for delay_ms
    esp8266_getweather.o(.text) refers to printfa.o(i.__0sprintf) for __2sprintf
    esp8266_getweather.o(.text) refers to strcmp.o(.text) for strcmp
    esp8266_getweather.o(.text) refers to my_lib.o(.text) for MY_LIB_ClearArray
    esp8266_getweather.o(.text) refers to esp8266_getweather.o(.constdata) for .constdata
    esp8266_getweather.o(.text) refers to esp8266_getweather.o(.conststring) for .conststring
    esp8266_getweather.o(.text) refers to esp8266_getweather.o(.bss) for .bss
    esp8266_getweather.o(.text) refers to uart.o(.bss) for u3_recvbuf
    esp8266_getweather.o(.text) refers to uart.o(.data) for u3_count
    esp8266_getweather.o(.constdata) refers to esp8266_getweather.o(.conststring) for .conststring
    delay.o(.text) refers to misc.o(.text) for SysTick_CLKSourceConfig
    delay.o(.text) refers to tasks.o(.text) for vTaskSuspendAll
    delay.o(.text) refers to delay.o(.data) for .data
    delay.o(.text) refers to system_stm32f4xx.o(.data) for SystemCoreClock
    uart.o(.text) refers to stm32f4xx_usart.o(.text) for USART_SendData
    uart.o(.text) refers to stm32f4xx_rcc.o(.text) for RCC_AHB1PeriphClockCmd
    uart.o(.text) refers to stm32f4xx_gpio.o(.text) for GPIO_PinAFConfig
    uart.o(.text) refers to misc.o(.text) for NVIC_Init
    uart.o(.text) refers to uart.o(.bss) for .bss
    uart.o(.text) refers to uart.o(.data) for .data
    stm32f4xx_gpio.o(.text) refers to stm32f4xx_rcc.o(.text) for RCC_AHB1PeriphResetCmd
    stm32f4xx_rcc.o(.text) refers to stm32f4xx_rcc.o(.data) for .data
    stm32f4xx_syscfg.o(.text) refers to stm32f4xx_rcc.o(.text) for RCC_APB2PeriphResetCmd
    stm32f4xx_tim.o(.text) refers to stm32f4xx_rcc.o(.text) for RCC_APB2PeriphResetCmd
    stm32f4xx_usart.o(.text) refers to stm32f4xx_rcc.o(.text) for RCC_APB2PeriphResetCmd
    stm32f4xx_spi.o(.text) refers to stm32f4xx_rcc.o(.text) for RCC_APB1PeriphResetCmd
    stm32f4xx_fsmc.o(.text) refers to stm32f4xx_fsmc.o(.constdata) for .constdata
    stm32f4xx_pwr.o(.text) refers to stm32f4xx_rcc.o(.text) for RCC_APB1PeriphResetCmd
    stm32f4xx_adc.o(.text) refers to stm32f4xx_rcc.o(.text) for RCC_APB2PeriphResetCmd
    startup_stm32f40_41xxx.o(RESET) refers to startup_stm32f40_41xxx.o(STACK) for __initial_sp
    startup_stm32f40_41xxx.o(RESET) refers to startup_stm32f40_41xxx.o(.text) for Reset_Handler
    startup_stm32f40_41xxx.o(RESET) refers to stm32f4xx_it.o(.text) for NMI_Handler
    startup_stm32f40_41xxx.o(RESET) refers to port.o(.emb_text) for SVC_Handler
    startup_stm32f40_41xxx.o(RESET) refers to port.o(.text) for SysTick_Handler
    startup_stm32f40_41xxx.o(RESET) refers to exti.o(.text) for EXTI0_IRQHandler
    startup_stm32f40_41xxx.o(RESET) refers to timer.o(.text) for TIM3_IRQHandler
    startup_stm32f40_41xxx.o(RESET) refers to uart.o(.text) for USART1_IRQHandler
    startup_stm32f40_41xxx.o(.text) refers to system_stm32f4xx.o(.text) for SystemInit
    startup_stm32f40_41xxx.o(.text) refers to entry.o(.ARM.Collect$$$$00000000) for __main
    lv_disp.o(.text) refers to lv_hal_disp.o(.text) for lv_disp_get_default
    lv_disp.o(.text) refers to lv_obj_pos.o(.text) for lv_obj_set_y
    lv_disp.o(.text) refers to lv_obj_style_gen.o(.text) for lv_obj_set_style_opa
    lv_disp.o(.text) refers to lv_obj_tree.o(.text) for lv_obj_get_disp
    lv_disp.o(.text) refers to lv_event.o(.text) for lv_event_send
    lv_disp.o(.text) refers to lv_obj_style.o(.text) for lv_obj_remove_local_style_prop
    lv_disp.o(.text) refers to lv_anim.o(.text) for lv_anim_del
    lv_disp.o(.text) refers to lv_theme.o(.text) for lv_theme_apply
    lv_disp.o(.text) refers to lv_area.o(.text) for lv_area_set
    lv_disp.o(.text) refers to lv_refr.o(.text) for _lv_inv_area
    lv_disp.o(.text) refers to lv_hal_tick.o(.text) for lv_tick_elaps
    lv_event.o(.text) refers to lv_indev.o(.text) for lv_indev_get_act
    lv_event.o(.text) refers to lv_obj.o(.text) for lv_obj_has_flag
    lv_event.o(.text) refers to lv_mem.o(.text) for lv_mem_realloc
    lv_event.o(.text) refers to lv_event.o(.data) for .data
    lv_group.o(.text) refers to lv_ll.o(.text) for _lv_ll_init
    lv_group.o(.text) refers to lv_indev.o(.text) for lv_indev_get_type
    lv_group.o(.text) refers to lv_hal_indev.o(.text) for lv_indev_get_next
    lv_group.o(.text) refers to lv_event.o(.text) for lv_event_send
    lv_group.o(.text) refers to lv_obj_pos.o(.text) for lv_obj_invalidate
    lv_group.o(.text) refers to lv_mem.o(.text) for lv_mem_free
    lv_group.o(.text) refers to lv_obj.o(.text) for lv_obj_get_state
    lv_group.o(.text) refers to lv_obj_tree.o(.text) for lv_obj_get_parent
    lv_group.o(.text) refers to lv_gc.o(.bss) for _lv_group_ll
    lv_group.o(.text) refers to lv_group.o(.data) for .data
    lv_indev.o(.text) refers to lv_event.o(.text) for lv_event_send
    lv_indev.o(.text) refers to lv_obj_style.o(.text) for lv_obj_get_style_prop
    lv_indev.o(.text) refers to lv_obj_tree.o(.text) for lv_obj_get_parent
    lv_indev.o(.text) refers to lv_area.o(.text) for lv_point_transform
    lv_indev.o(.text) refers to lv_indev_scroll.o(.text) for _lv_indev_scroll_throw_handler
    lv_indev.o(.text) refers to lv_obj.o(.text) for lv_obj_has_flag
    lv_indev.o(.text) refers to lv_group.o(.text) for lv_group_focus_obj
    lv_indev.o(.text) refers to lv_obj_pos.o(.text) for lv_obj_transform_point
    lv_indev.o(.text) refers to lv_disp.o(.text) for lv_disp_get_layer_sys
    lv_indev.o(.text) refers to lv_hal_tick.o(.text) for lv_tick_get
    lv_indev.o(.text) refers to lv_indev.o(.data) for .data
    lv_indev.o(.text) refers to lv_obj_class.o(.text) for lv_obj_is_editable
    lv_indev.o(.text) refers to lv_hal_disp.o(.text) for lv_disp_get_hor_res
    lv_indev.o(.text) refers to lv_hal_indev.o(.text) for _lv_indev_read
    lv_indev_scroll.o(.text) refers to lv_obj.o(.text) for lv_obj_has_flag
    lv_indev_scroll.o(.text) refers to lv_obj_scroll.o(.text) for lv_obj_get_scroll_snap_y
    lv_indev_scroll.o(.text) refers to lv_indev.o(.text) for lv_indev_get_obj_act
    lv_indev_scroll.o(.text) refers to lv_obj_tree.o(.text) for lv_obj_get_child_cnt
    lv_indev_scroll.o(.text) refers to lv_area.o(.text) for lv_area_set
    lv_indev_scroll.o(.text) refers to lv_event.o(.text) for lv_event_send
    lv_indev_scroll.o(.text) refers to lv_obj_style.o(.text) for lv_obj_get_style_prop
    lv_obj.o(.text) refers to lv_mem.o(.text) for lv_mem_init
    lv_obj.o(.text) refers to lv_timer.o(.text) for _lv_timer_core_init
    lv_obj.o(.text) refers to lv_fs.o(.text) for _lv_fs_init
    lv_obj.o(.text) refers to lv_anim.o(.text) for _lv_anim_core_init
    lv_obj.o(.text) refers to lv_group.o(.text) for _lv_group_init
    lv_obj.o(.text) refers to lv_draw.o(.text) for lv_draw_init
    lv_obj.o(.text) refers to lv_obj_style.o(.text) for _lv_obj_style_init
    lv_obj.o(.text) refers to lv_ll.o(.text) for _lv_ll_init
    lv_obj.o(.text) refers to lv_refr.o(.text) for _lv_refr_init
    lv_obj.o(.text) refers to lv_img_decoder.o(.text) for _lv_img_decoder_init
    lv_obj.o(.text) refers to lv_extra.o(.text) for lv_extra_init
    lv_obj.o(.text) refers to lv_gc.o(.text) for _lv_gc_clear_roots
    lv_obj.o(.text) refers to lv_hal_disp.o(.text) for lv_disp_set_default
    lv_obj.o(.text) refers to lv_obj_class.o(.text) for lv_obj_class_create_obj
    lv_obj.o(.text) refers to lv_obj_pos.o(.text) for lv_obj_is_layout_positioned
    lv_obj.o(.text) refers to lv_obj_tree.o(.text) for lv_obj_get_parent
    lv_obj.o(.text) refers to lv_obj_scroll.o(.text) for lv_obj_get_scrollbar_area
    lv_obj.o(.text) refers to lv_obj_draw.o(.text) for lv_obj_refresh_ext_draw_size
    lv_obj.o(.text) refers to lv_obj.o(.data) for .data
    lv_obj.o(.text) refers to lv_gc.o(.bss) for _lv_disp_ll
    lv_obj.o(.text) refers to lv_obj.o(.constdata) for .constdata
    lv_obj.o(.text) refers to lv_event.o(.text) for _lv_event_mark_deleted
    lv_obj.o(.text) refers to lv_draw_rect.o(.text) for lv_draw_rect_dsc_init
    lv_obj.o(.text) refers to lv_draw_mask.o(.text) for lv_draw_mask_remove_custom
    lv_obj.o(.text) refers to lv_area.o(.text) for _lv_area_is_in
    lv_obj.o(.text) refers to lv_indev.o(.text) for lv_indev_get_scroll_obj
    lv_obj.o(.text) refers to lv_style.o(.text) for lv_style_prop_get_default
    lv_obj.o(.constdata) refers to lv_obj.o(.text) for lv_obj_constructor
    lv_obj_class.o(.text) refers to lv_mem.o(.text) for lv_mem_alloc
    lv_obj_class.o(.text) refers to lv_hal_disp.o(.text) for lv_disp_get_default
    lv_obj_class.o(.text) refers to lv_obj.o(.text) for lv_obj_allocate_spec_attr
    lv_obj_class.o(.text) refers to lv_obj_pos.o(.text) for lv_obj_mark_layout_as_dirty
    lv_obj_class.o(.text) refers to lv_obj_style.o(.text) for lv_obj_enable_style_refresh
    lv_obj_class.o(.text) refers to lv_theme.o(.text) for lv_theme_apply
    lv_obj_class.o(.text) refers to lv_group.o(.text) for lv_group_get_default
    lv_obj_class.o(.text) refers to lv_obj_tree.o(.text) for lv_obj_get_parent
    lv_obj_class.o(.text) refers to lv_event.o(.text) for lv_event_send
    lv_obj_draw.o(.text) refers to lv_obj_style.o(.text) for lv_obj_get_style_opa_recursive
    lv_obj_draw.o(.text) refers to lv_mem.o(.text) for lv_memcpy
    lv_obj_draw.o(.text) refers to lv_draw_img.o(.text) for lv_img_src_get_type
    lv_obj_draw.o(.text) refers to lv_event.o(.text) for lv_event_send
    lv_obj_draw.o(.text) refers to lv_obj_pos.o(.text) for lv_obj_invalidate
    lv_obj_draw.o(.text) refers to lv_obj.o(.text) for lv_obj_allocate_spec_attr
    lv_obj_pos.o(.text) refers to lv_obj_style.o(.text) for lv_obj_get_local_style_prop
    lv_obj_pos.o(.text) refers to lv_obj_style_gen.o(.text) for lv_obj_set_style_y
    lv_obj_pos.o(.text) refers to lv_area.o(.text) for lv_point_transform
    lv_obj_pos.o(.text) refers to lv_obj_draw.o(.text) for _lv_obj_get_layer_type
    lv_obj_pos.o(.text) refers to lv_obj_tree.o(.text) for lv_obj_get_parent
    lv_obj_pos.o(.text) refers to lv_obj.o(.text) for lv_obj_has_flag
    lv_obj_pos.o(.text) refers to lv_disp.o(.text) for lv_disp_get_scr_act
    lv_obj_pos.o(.text) refers to lv_refr.o(.text) for _lv_inv_area
    lv_obj_pos.o(.text) refers to lv_event.o(.text) for lv_event_send
    lv_obj_pos.o(.text) refers to lv_obj_scroll.o(.text) for lv_obj_scroll_to_y
    lv_obj_pos.o(.text) refers to lv_obj_pos.o(.constdata) for .constdata
    lv_obj_pos.o(.text) refers to lv_timer.o(.text) for lv_timer_resume
    lv_obj_pos.o(.text) refers to lv_mem.o(.text) for lv_mem_realloc
    lv_obj_pos.o(.text) refers to lv_obj_pos.o(.data) for .data
    lv_obj_pos.o(.text) refers to lv_gc.o(.data) for _lv_layout_list
    lv_obj_scroll.o(.text) refers to lv_obj.o(.text) for lv_obj_allocate_spec_attr
    lv_obj_scroll.o(.text) refers to lv_obj_pos.o(.text) for lv_obj_invalidate
    lv_obj_scroll.o(.text) refers to lv_obj_tree.o(.text) for lv_obj_get_child_cnt
    lv_obj_scroll.o(.text) refers to lv_event.o(.text) for lv_event_send
    lv_obj_scroll.o(.text) refers to lv_anim.o(.text) for lv_anim_get
    lv_obj_scroll.o(.text) refers to lv_hal_disp.o(.text) for lv_disp_get_hor_res
    lv_obj_scroll.o(.text) refers to lv_indev.o(.text) for lv_indev_get_scroll_obj
    lv_obj_scroll.o(.text) refers to lv_hal_indev.o(.text) for lv_indev_get_next
    lv_obj_scroll.o(.text) refers to lv_indev_scroll.o(.text) for lv_indev_scroll_get_snap_dist
    lv_obj_scroll.o(.text) refers to lv_area.o(.text) for lv_area_set
    lv_obj_scroll.o(.text) refers to lv_obj_style.o(.text) for lv_obj_get_style_prop
    lv_obj_style.o(.text) refers to lv_style.o(.text) for _lv_style_get_prop_group
    lv_obj_style.o(.text) refers to lv_obj_tree.o(.text) for lv_obj_get_parent
    lv_obj_style.o(.text) refers to lv_ll.o(.text) for _lv_ll_init
    lv_obj_style.o(.text) refers to lv_obj_pos.o(.text) for lv_obj_invalidate
    lv_obj_style.o(.text) refers to lv_event.o(.text) for lv_event_send
    lv_obj_style.o(.text) refers to lv_obj.o(.text) for lv_obj_allocate_spec_attr
    lv_obj_style.o(.text) refers to lv_obj_draw.o(.text) for lv_obj_refresh_ext_draw_size
    lv_obj_style.o(.text) refers to lv_anim.o(.text) for lv_anim_del
    lv_obj_style.o(.text) refers to lv_mem.o(.text) for lv_mem_free
    lv_obj_style.o(.text) refers to lv_gc.o(.bss) for _lv_obj_style_trans_ll
    lv_obj_style.o(.text) refers to lv_obj_style.o(.data) for .data
    lv_obj_style.o(.text) refers to lv_hal_disp.o(.text) for lv_disp_get_next
    lv_obj_style.o(.text) refers to lv_obj_style_gen.o(.text) for lv_obj_set_style_opa
    lv_obj_style_gen.o(.text) refers to lv_obj_style.o(.text) for lv_obj_set_local_style_prop
    lv_obj_tree.o(.text) refers to lv_ll.o(.text) for _lv_ll_get_head
    lv_obj_tree.o(.text) refers to lv_event.o(.text) for lv_event_send
    lv_obj_tree.o(.text) refers to lv_obj.o(.text) for lv_obj_get_group
    lv_obj_tree.o(.text) refers to lv_hal_indev.o(.text) for lv_indev_get_next
    lv_obj_tree.o(.text) refers to lv_indev.o(.text) for lv_indev_reset
    lv_obj_tree.o(.text) refers to lv_obj_class.o(.text) for _lv_obj_destruct
    lv_obj_tree.o(.text) refers to lv_mem.o(.text) for lv_mem_realloc
    lv_obj_tree.o(.text) refers to lv_obj_pos.o(.text) for lv_obj_invalidate
    lv_obj_tree.o(.text) refers to lv_obj_scroll.o(.text) for lv_obj_scrollbar_invalidate
    lv_obj_tree.o(.text) refers to lv_anim.o(.text) for lv_anim_init
    lv_obj_tree.o(.text) refers to lv_async.o(.text) for lv_async_call
    lv_obj_tree.o(.text) refers to lv_gc.o(.bss) for _lv_disp_ll
    lv_obj_tree.o(.text) refers to lv_group.o(.text) for lv_group_swap_obj
    lv_obj_tree.o(.text) refers to lv_hal_disp.o(.text) for lv_disp_get_next
    lv_refr.o(.text) refers to lv_hal_disp.o(.text) for lv_disp_get_draw_buf
    lv_refr.o(.text) refers to lv_mem.o(.text) for lv_mem_buf_get
    lv_refr.o(.text) refers to lv_obj_pos.o(.text) for lv_obj_get_coords
    lv_refr.o(.text) refers to lv_obj_draw.o(.text) for _lv_obj_get_ext_draw_size
    lv_refr.o(.text) refers to lv_area.o(.text) for lv_area_increase
    lv_refr.o(.text) refers to lv_obj.o(.text) for lv_obj_has_flag
    lv_refr.o(.text) refers to lv_event.o(.text) for lv_event_send
    lv_refr.o(.text) refers to lv_obj_tree.o(.text) for lv_obj_get_child_cnt
    lv_refr.o(.text) refers to lv_refr.o(.bss) for .bss
    lv_refr.o(.text) refers to lv_refr.o(.data) for .data
    lv_refr.o(.text) refers to lv_obj_style.o(.text) for lv_obj_get_style_prop
    lv_refr.o(.text) refers to lv_draw_layer.o(.text) for lv_draw_layer_create
    lv_refr.o(.text) refers to lv_draw_img.o(.text) for lv_draw_img_dsc_init
    lv_refr.o(.text) refers to lv_disp.o(.text) for lv_disp_get_scr_act
    lv_refr.o(.text) refers to lv_draw_rect.o(.text) for lv_draw_rect_dsc_init
    lv_refr.o(.text) refers to lv_img_decoder.o(.text) for lv_img_decoder_get_info
    lv_refr.o(.text) refers to lv_ll.o(.text) for _lv_ll_is_empty
    lv_refr.o(.text) refers to memseta.o(.text) for __aeabi_memclr4
    lv_refr.o(.text) refers to lv_hal_tick.o(.text) for lv_tick_get
    lv_refr.o(.text) refers to lv_font_fmt_txt.o(.text) for _lv_font_clean_up_fmt_txt
    lv_refr.o(.text) refers to lv_draw_mask.o(.text) for _lv_draw_mask_cleanup
    lv_refr.o(.text) refers to lv_label.o(.text) for lv_label_create
    lv_refr.o(.text) refers to lv_obj_style_gen.o(.text) for lv_obj_set_style_bg_opa
    lv_refr.o(.text) refers to lv_timer.o(.text) for lv_timer_get_idle
    lv_refr.o(.text) refers to lv_anim.o(.text) for lv_anim_refr_now
    lv_theme.o(.text) refers to lv_obj_tree.o(.text) for lv_obj_get_disp
    lv_theme.o(.text) refers to lv_hal_disp.o(.text) for lv_disp_get_default
    lv_theme.o(.text) refers to lv_disp.o(.text) for lv_disp_get_theme
    lv_theme.o(.text) refers to lv_obj_style.o(.text) for lv_obj_remove_style
    lv_theme.o(.text) refers to lv_color.o(.text) for lv_palette_main
    lv_theme.o(.text) refers to lv_font_montserrat_14.o(.constdata) for lv_font_montserrat_14
    lv_draw_arc.o(.text) refers to lv_mem.o(.text) for lv_memset_00
    lv_draw_arc.o(.text) refers to lv_math.o(.text) for lv_trigo_sin
    lv_draw_img.o(.text) refers to lv_mem.o(.text) for lv_memset_00
    lv_draw_img.o(.text) refers to lv_draw_rect.o(.text) for lv_draw_rect_dsc_init
    lv_draw_img.o(.text) refers to lv_draw_label.o(.text) for lv_draw_label_dsc_init
    lv_draw_img.o(.text) refers to lv_img_cache.o(.text) for _lv_img_cache_open
    lv_draw_img.o(.text) refers to lv_img_buf.o(.text) for _lv_img_buf_get_transformed_area
    lv_draw_img.o(.text) refers to lv_area.o(.text) for _lv_area_intersect
    lv_draw_img.o(.text) refers to lv_img_decoder.o(.text) for lv_img_decoder_read_line
    lv_draw_label.o(.text) refers to lv_mem.o(.text) for lv_memset_00
    lv_draw_label.o(.text) refers to lv_color.o(.text) for lv_palette_main
    lv_draw_label.o(.text) refers to memmovea.o(.text) for __aeabi_memcpy4
    lv_draw_label.o(.text) refers to lv_area.o(.text) for _lv_area_intersect
    lv_draw_label.o(.text) refers to lv_txt.o(.text) for lv_txt_get_size
    lv_draw_label.o(.text) refers to lv_draw_line.o(.text) for lv_draw_line_dsc_init
    lv_draw_label.o(.text) refers to lv_draw_rect.o(.text) for lv_draw_rect_dsc_init
    lv_draw_label.o(.text) refers to lv_font.o(.text) for lv_font_get_glyph_width
    lv_draw_label.o(.text) refers to lv_font_montserrat_14.o(.constdata) for lv_font_montserrat_14
    lv_draw_label.o(.text) refers to lv_txt.o(.data) for _lv_txt_encoded_get_char_id
    lv_draw_layer.o(.text) refers to lv_mem.o(.text) for lv_mem_alloc
    lv_draw_layer.o(.text) refers to lv_refr.o(.text) for _lv_refr_get_disp_refreshing
    lv_draw_layer.o(.text) refers to lv_draw.o(.text) for lv_draw_wait_for_finish
    lv_draw_line.o(.text) refers to lv_mem.o(.text) for lv_memset_00
    lv_draw_mask.o(.text) refers to lv_mem.o(.text) for lv_mem_free
    lv_draw_mask.o(.text) refers to lv_area.o(.text) for _lv_area_is_out
    lv_draw_mask.o(.text) refers to lv_gc.o(.bss) for _lv_draw_mask_list
    lv_draw_mask.o(.text) refers to lv_math.o(.text) for lv_trigo_sin
    lv_draw_rect.o(.text) refers to lv_mem.o(.text) for lv_memset_00
    lv_draw_rect.o(.text) refers to lv_font_montserrat_14.o(.constdata) for lv_font_montserrat_14
    lv_img_buf.o(.text) refers to lv_draw_img.o(.text) for lv_img_cf_get_px_size
    lv_img_buf.o(.text) refers to lv_mem.o(.text) for lv_mem_alloc
    lv_img_buf.o(.text) refers to lv_area.o(.text) for lv_point_transform
    lv_img_cache.o(.text) refers to lv_hal_tick.o(.text) for lv_tick_get
    lv_img_cache.o(.text) refers to lv_img_decoder.o(.text) for lv_img_decoder_open
    lv_img_cache.o(.text) refers to lv_mem.o(.text) for lv_memset_00
    lv_img_cache.o(.text) refers to lv_gc.o(.bss) for _lv_img_cache_single
    lv_img_decoder.o(.text) refers to lv_fs.o(.text) for lv_fs_close
    lv_img_decoder.o(.text) refers to lv_mem.o(.text) for lv_mem_free
    lv_img_decoder.o(.text) refers to lv_draw_img.o(.text) for lv_img_cf_get_px_size
    lv_img_decoder.o(.text) refers to strcmp.o(.text) for strcmp
    lv_img_decoder.o(.text) refers to lv_ll.o(.text) for _lv_ll_ins_head
    lv_img_decoder.o(.text) refers to strlen.o(.text) for strlen
    lv_img_decoder.o(.text) refers to strcpy.o(.text) for strcpy
    lv_img_decoder.o(.text) refers to lv_gc.o(.bss) for _lv_img_decoder_ll
    lv_draw_sw.o(.text) refers to lv_mem.o(.text) for lv_memcpy
    lv_draw_sw.o(.text) refers to lv_draw_sw_arc.o(.text) for lv_draw_sw_arc
    lv_draw_sw.o(.text) refers to lv_draw_sw_rect.o(.text) for lv_draw_sw_rect
    lv_draw_sw.o(.text) refers to lv_draw_sw_letter.o(.text) for lv_draw_sw_letter
    lv_draw_sw.o(.text) refers to lv_draw_sw_img.o(.text) for lv_draw_sw_img_decoded
    lv_draw_sw.o(.text) refers to lv_draw_sw_line.o(.text) for lv_draw_sw_line
    lv_draw_sw.o(.text) refers to lv_draw_sw_polygon.o(.text) for lv_draw_sw_polygon
    lv_draw_sw.o(.text) refers to lv_draw_sw_transform.o(.text) for lv_draw_sw_transform
    lv_draw_sw.o(.text) refers to lv_draw_sw_layer.o(.text) for lv_draw_sw_layer_create
    lv_draw_sw.o(.text) refers to lv_draw_sw_blend.o(.text) for lv_draw_sw_blend_basic
    lv_draw_sw_arc.o(.text) refers to lv_math.o(.text) for lv_trigo_sin
    lv_draw_sw_arc.o(.text) refers to lv_area.o(.text) for _lv_area_intersect
    lv_draw_sw_arc.o(.text) refers to lv_draw_rect.o(.text) for lv_draw_rect
    lv_draw_sw_arc.o(.text) refers to lv_draw_mask.o(.text) for lv_draw_mask_radius_init
    lv_draw_sw_blend.o(.text) refers to lv_area.o(.text) for _lv_area_intersect
    lv_draw_sw_blend.o(.text) refers to lv_mem.o(.text) for lv_memcpy
    lv_draw_sw_blend.o(.text) refers to lv_color.o(.text) for lv_color_fill
    lv_draw_sw_blend.o(.text) refers to lv_refr.o(.text) for _lv_refr_get_disp_refreshing
    lv_draw_sw_gradient.o(.text) refers to lv_mem.o(.text) for lv_memcpy
    lv_draw_sw_gradient.o(.text) refers to lv_draw_sw_gradient.o(.data) for .data
    lv_draw_sw_gradient.o(.text) refers to lv_gc.o(.data) for _lv_grad_cache_mem
    lv_draw_sw_img.o(.text) refers to lv_area.o(.text) for lv_area_get_size
    lv_draw_sw_img.o(.text) refers to lv_mem.o(.text) for lv_memset_ff
    lv_draw_sw_img.o(.text) refers to lv_draw_mask.o(.text) for lv_draw_mask_is_any
    lv_draw_sw_img.o(.text) refers to lv_draw_sw_blend.o(.text) for lv_draw_sw_blend
    lv_draw_sw_img.o(.text) refers to lv_refr.o(.text) for _lv_refr_get_disp_refreshing
    lv_draw_sw_img.o(.text) refers to lv_hal_disp.o(.text) for lv_disp_get_hor_res
    lv_draw_sw_img.o(.text) refers to lv_draw_transform.o(.text) for lv_draw_transform
    lv_draw_sw_layer.o(.text) refers to lv_area.o(.text) for lv_area_get_size
    lv_draw_sw_layer.o(.text) refers to lv_mem.o(.text) for lv_mem_alloc
    lv_draw_sw_layer.o(.text) refers to lv_refr.o(.text) for _lv_refr_get_disp_refreshing
    lv_draw_sw_layer.o(.text) refers to lv_draw_img.o(.text) for lv_draw_img
    lv_draw_sw_layer.o(.text) refers to lv_draw.o(.text) for lv_draw_wait_for_finish
    lv_draw_sw_layer.o(.text) refers to lv_img_cache.o(.text) for lv_img_cache_invalidate_src
    lv_draw_sw_letter.o(.text) refers to lv_mem.o(.text) for lv_memset_00
    lv_draw_sw_letter.o(.text) refers to lv_refr.o(.text) for _lv_refr_get_disp_refreshing
    lv_draw_sw_letter.o(.text) refers to lv_hal_disp.o(.text) for lv_disp_get_hor_res
    lv_draw_sw_letter.o(.text) refers to lv_draw_mask.o(.text) for lv_draw_mask_is_any
    lv_draw_sw_letter.o(.text) refers to lv_draw_sw_blend.o(.text) for lv_draw_sw_blend
    lv_draw_sw_letter.o(.text) refers to lv_font.o(.text) for lv_font_get_glyph_dsc
    lv_draw_sw_letter.o(.text) refers to lv_area.o(.text) for lv_area_set
    lv_draw_sw_letter.o(.text) refers to lv_draw_rect.o(.text) for lv_draw_rect_dsc_init
    lv_draw_sw_letter.o(.text) refers to lv_draw_sw_letter.o(.constdata) for .constdata
    lv_draw_sw_letter.o(.text) refers to lv_draw_sw_letter.o(.data) for .data
    lv_draw_sw_letter.o(.text) refers to lv_draw_sw_letter.o(.bss) for .bss
    lv_draw_sw_line.o(.text) refers to lv_area.o(.text) for _lv_area_intersect
    lv_draw_sw_line.o(.text) refers to lv_draw_mask.o(.text) for lv_draw_mask_line_points_init
    lv_draw_sw_line.o(.text) refers to lv_refr.o(.text) for _lv_refr_get_disp_refreshing
    lv_draw_sw_line.o(.text) refers to lv_hal_disp.o(.text) for lv_disp_get_hor_res
    lv_draw_sw_line.o(.text) refers to lv_mem.o(.text) for lv_mem_buf_get
    lv_draw_sw_line.o(.text) refers to lv_draw_sw_blend.o(.text) for lv_draw_sw_blend
    lv_draw_sw_line.o(.text) refers to lv_draw_sw_line.o(.constdata) for .constdata
    lv_draw_sw_line.o(.text) refers to lv_draw_rect.o(.text) for lv_draw_rect_dsc_init
    lv_draw_sw_polygon.o(.text) refers to lv_mem.o(.text) for lv_mem_buf_get
    lv_draw_sw_polygon.o(.text) refers to lv_area.o(.text) for _lv_area_intersect
    lv_draw_sw_polygon.o(.text) refers to lv_draw_mask.o(.text) for lv_draw_mask_line_points_init
    lv_draw_sw_polygon.o(.text) refers to lv_draw_rect.o(.text) for lv_draw_rect
    lv_draw_sw_polygon.o(.text) refers to lv_draw_sw_polygon.o(.constdata) for .constdata
    lv_draw_sw_rect.o(.text) refers to lv_mem.o(.text) for lv_memset_00
    lv_draw_sw_rect.o(.text) refers to lv_draw_sw_blend.o(.text) for lv_draw_sw_blend
    lv_draw_sw_rect.o(.text) refers to lv_draw_mask.o(.text) for lv_draw_mask_is_any
    lv_draw_sw_rect.o(.text) refers to lv_area.o(.text) for _lv_area_intersect
    lv_draw_sw_rect.o(.text) refers to lv_draw_img.o(.text) for lv_img_src_get_type
    lv_draw_sw_rect.o(.text) refers to lv_img_decoder.o(.text) for lv_img_decoder_get_info
    lv_draw_sw_rect.o(.text) refers to lv_txt.o(.text) for lv_txt_get_size
    lv_draw_sw_rect.o(.text) refers to lv_draw_label.o(.text) for lv_draw_label_dsc_init
    lv_draw_sw_rect.o(.text) refers to memseta.o(.text) for __aeabi_memclr4
    lv_draw_sw_rect.o(.text) refers to lv_draw_sw_gradient.o(.text) for lv_gradient_get
    lv_draw_sw_transform.o(.text) refers to lv_refr.o(.text) for _lv_refr_get_disp_refreshing
    lv_draw_sw_transform.o(.text) refers to lv_math.o(.text) for lv_trigo_sin
    lv_draw_sw_transform.o(.text) refers to lv_mem.o(.text) for lv_memset_ff
    lv_extra.o(.text) refers to lv_flex.o(.text) for lv_flex_init
    lv_extra.o(.text) refers to lv_grid.o(.text) for lv_grid_init
    lv_flex.o(.text) refers to lv_obj_pos.o(.text) for lv_obj_get_content_width
    lv_flex.o(.text) refers to lv_obj_tree.o(.text) for lv_obj_get_child
    lv_flex.o(.text) refers to lv_obj.o(.text) for lv_obj_has_flag_any
    lv_flex.o(.text) refers to lv_event.o(.text) for lv_event_send
    lv_flex.o(.text) refers to lv_obj_style.o(.text) for lv_obj_get_style_prop
    lv_flex.o(.text) refers to lv_area.o(.text) for lv_area_set_width
    lv_flex.o(.text) refers to lv_mem.o(.text) for lv_mem_buf_get
    lv_flex.o(.text) refers to lv_obj_scroll.o(.text) for lv_obj_get_scroll_y
    lv_flex.o(.text) refers to lv_flex.o(.data) for .data
    lv_flex.o(.text) refers to lv_style.o(.text) for lv_style_register_prop
    lv_flex.o(.text) refers to lv_obj_style_gen.o(.text) for lv_obj_set_style_layout
    lv_grid.o(.text) refers to lv_obj.o(.text) for lv_obj_has_flag_any
    lv_grid.o(.text) refers to lv_obj_style.o(.text) for lv_obj_get_style_prop
    lv_grid.o(.text) refers to lv_obj_pos.o(.text) for lv_obj_get_width
    lv_grid.o(.text) refers to lv_area.o(.text) for lv_area_set_width
    lv_grid.o(.text) refers to lv_event.o(.text) for lv_event_send
    lv_grid.o(.text) refers to lv_obj_tree.o(.text) for lv_obj_get_parent
    lv_grid.o(.text) refers to lv_mem.o(.text) for lv_mem_buf_get
    lv_grid.o(.text) refers to lv_grid.o(.data) for .data
    lv_grid.o(.text) refers to lv_obj_scroll.o(.text) for lv_obj_get_scroll_x
    lv_grid.o(.text) refers to lv_style.o(.text) for lv_style_register_prop
    lv_grid.o(.text) refers to lv_obj_style_gen.o(.text) for lv_obj_set_style_layout
    qrcodegen.o(.text) refers to qrcodegen.o(.constdata) for .constdata
    qrcodegen.o(.text) refers to memseta.o(.text) for __aeabi_memclr
    qrcodegen.o(.text) refers to memmovea.o(.text) for __aeabi_memmove
    qrcodegen.o(.text) refers to strlen.o(.text) for strlen
    qrcodegen.o(.text) refers to strchr.o(.text) for strchr
    qrcodegen.o(.text) refers to qrcodegen.o(.data) for .data
    qrcodegen.o(.data) refers to qrcodegen.o(.conststring) for .conststring
    lv_theme_basic.o(.text) refers to lv_style_gen.o(.text) for lv_style_set_bg_opa
    lv_theme_basic.o(.text) refers to lv_color.o(.text) for lv_palette_main
    lv_theme_basic.o(.text) refers to lv_obj_tree.o(.text) for lv_obj_get_parent
    lv_theme_basic.o(.text) refers to lv_obj.o(.text) for lv_obj_check_type
    lv_theme_basic.o(.text) refers to lv_obj_style.o(.text) for lv_obj_add_style
    lv_theme_basic.o(.text) refers to lv_theme_basic.o(.data) for .data
    lv_theme_basic.o(.text) refers to lv_gc.o(.data) for _lv_theme_basic_styles
    lv_theme_basic.o(.text) refers to lv_obj.o(.constdata) for lv_obj_class
    lv_theme_basic.o(.text) refers to lv_tabview.o(.constdata) for lv_tabview_class
    lv_theme_basic.o(.text) refers to lv_win.o(.constdata) for lv_win_class
    lv_theme_basic.o(.text) refers to lv_btn.o(.constdata) for lv_btn_class
    lv_theme_basic.o(.text) refers to lv_btnmatrix.o(.constdata) for lv_btnmatrix_class
    lv_theme_basic.o(.text) refers to lv_msgbox.o(.constdata) for lv_msgbox_class
    lv_theme_basic.o(.text) refers to lv_bar.o(.constdata) for lv_bar_class
    lv_theme_basic.o(.text) refers to lv_slider.o(.constdata) for lv_slider_class
    lv_theme_basic.o(.text) refers to lv_table.o(.constdata) for lv_table_class
    lv_theme_basic.o(.text) refers to lv_checkbox.o(.constdata) for lv_checkbox_class
    lv_theme_basic.o(.text) refers to lv_switch.o(.constdata) for lv_switch_class
    lv_theme_basic.o(.text) refers to lv_mem.o(.text) for lv_mem_alloc
    lv_theme_basic.o(.text) refers to lv_disp.o(.text) for lv_disp_get_theme
    lv_theme_basic.o(.text) refers to lv_style.o(.text) for lv_style_reset
    lv_theme_basic.o(.text) refers to lv_chart.o(.constdata) for lv_chart_class
    lv_theme_basic.o(.text) refers to lv_roller.o(.constdata) for lv_roller_class
    lv_theme_basic.o(.text) refers to lv_dropdown.o(.constdata) for lv_dropdown_class
    lv_theme_basic.o(.text) refers to lv_arc.o(.constdata) for lv_arc_class
    lv_theme_basic.o(.text) refers to lv_spinner.o(.constdata) for lv_spinner_class
    lv_theme_basic.o(.text) refers to lv_colorwheel.o(.constdata) for lv_colorwheel_class
    lv_theme_basic.o(.text) refers to lv_meter.o(.constdata) for lv_meter_class
    lv_theme_basic.o(.text) refers to lv_textarea.o(.constdata) for lv_textarea_class
    lv_theme_basic.o(.text) refers to lv_calendar.o(.constdata) for lv_calendar_class
    lv_theme_basic.o(.text) refers to lv_keyboard.o(.constdata) for lv_keyboard_class
    lv_theme_basic.o(.text) refers to lv_list.o(.constdata) for lv_list_class
    lv_theme_basic.o(.text) refers to lv_spinbox.o(.constdata) for lv_spinbox_class
    lv_theme_basic.o(.text) refers to lv_tileview.o(.constdata) for lv_tileview_class
    lv_theme_basic.o(.text) refers to lv_led.o(.constdata) for lv_led_class
    lv_theme_basic.o(.text) refers to lv_theme_basic.o(.bss) for .bss
    lv_theme_basic.o(.text) refers to lv_font_montserrat_14.o(.constdata) for lv_font_montserrat_14
    lv_theme_default.o(.text) refers to lv_hal_disp.o(.text) for lv_disp_get_dpi
    lv_theme_default.o(.text) refers to lv_color.o(.text) for lv_color_darken
    lv_theme_default.o(.text) refers to lv_style.o(.text) for lv_style_transition_dsc_init
    lv_theme_default.o(.text) refers to lv_style_gen.o(.text) for lv_style_set_transition
    lv_theme_default.o(.text) refers to lv_theme_default.o(.bss) for .bss
    lv_theme_default.o(.text) refers to lv_theme_default.o(.data) for .data
    lv_theme_default.o(.text) refers to lv_anim.o(.text) for lv_anim_path_linear
    lv_theme_default.o(.text) refers to lv_theme_default.o(.constdata) for .constdata
    lv_theme_default.o(.text) refers to lv_obj_tree.o(.text) for lv_obj_get_parent
    lv_theme_default.o(.text) refers to lv_obj.o(.text) for lv_obj_check_type
    lv_theme_default.o(.text) refers to lv_obj_style.o(.text) for lv_obj_add_style
    lv_theme_default.o(.text) refers to lv_obj.o(.constdata) for lv_obj_class
    lv_theme_default.o(.text) refers to lv_tabview.o(.constdata) for lv_tabview_class
    lv_theme_default.o(.text) refers to lv_win.o(.constdata) for lv_win_class
    lv_theme_default.o(.text) refers to lv_calendar.o(.constdata) for lv_calendar_class
    lv_theme_default.o(.text) refers to lv_btn.o(.constdata) for lv_btn_class
    lv_theme_default.o(.text) refers to lv_menu.o(.constdata) for lv_menu_sidebar_header_cont_class
    lv_theme_default.o(.text) refers to lv_line.o(.constdata) for lv_line_class
    lv_theme_default.o(.text) refers to lv_btnmatrix.o(.constdata) for lv_btnmatrix_class
    lv_theme_default.o(.text) refers to lv_msgbox.o(.constdata) for lv_msgbox_class
    lv_theme_default.o(.text) refers to lv_bar.o(.constdata) for lv_bar_class
    lv_theme_default.o(.text) refers to lv_slider.o(.constdata) for lv_slider_class
    lv_theme_default.o(.text) refers to lv_table.o(.constdata) for lv_table_class
    lv_theme_default.o(.text) refers to lv_checkbox.o(.constdata) for lv_checkbox_class
    lv_theme_default.o(.text) refers to lv_switch.o(.constdata) for lv_switch_class
    lv_theme_default.o(.text) refers to lv_chart.o(.constdata) for lv_chart_class
    lv_theme_default.o(.text) refers to lv_roller.o(.constdata) for lv_roller_class
    lv_theme_default.o(.text) refers to lv_dropdown.o(.constdata) for lv_dropdown_class
    lv_theme_default.o(.text) refers to lv_arc.o(.constdata) for lv_arc_class
    lv_theme_default.o(.text) refers to lv_spinner.o(.constdata) for lv_spinner_class
    lv_theme_default.o(.text) refers to lv_meter.o(.constdata) for lv_meter_class
    lv_theme_default.o(.text) refers to lv_textarea.o(.constdata) for lv_textarea_class
    lv_theme_default.o(.text) refers to lv_calendar_header_arrow.o(.constdata) for lv_calendar_header_arrow_class
    lv_theme_default.o(.text) refers to lv_calendar_header_dropdown.o(.constdata) for lv_calendar_header_dropdown_class
    lv_theme_default.o(.text) refers to lv_keyboard.o(.constdata) for lv_keyboard_class
    lv_theme_default.o(.text) refers to lv_list.o(.constdata) for lv_list_class
    lv_theme_default.o(.text) refers to lv_spinbox.o(.constdata) for lv_spinbox_class
    lv_theme_default.o(.text) refers to lv_tileview.o(.constdata) for lv_tileview_class
    lv_theme_default.o(.text) refers to lv_mem.o(.text) for lv_mem_alloc
    lv_theme_default.o(.text) refers to lv_disp.o(.text) for lv_disp_get_theme
    lv_theme_default.o(.text) refers to lv_colorwheel.o(.constdata) for lv_colorwheel_class
    lv_theme_default.o(.text) refers to lv_led.o(.constdata) for lv_led_class
    lv_theme_default.o(.text) refers to lv_gc.o(.data) for _lv_theme_default_styles
    lv_theme_mono.o(.text) refers to lv_style_gen.o(.text) for lv_style_set_bg_opa
    lv_theme_mono.o(.text) refers to lv_obj_tree.o(.text) for lv_obj_get_parent
    lv_theme_mono.o(.text) refers to lv_obj.o(.text) for lv_obj_check_type
    lv_theme_mono.o(.text) refers to lv_obj_style.o(.text) for lv_obj_add_style
    lv_theme_mono.o(.text) refers to lv_theme_mono.o(.data) for .data
    lv_theme_mono.o(.text) refers to lv_gc.o(.data) for _lv_theme_default_styles
    lv_theme_mono.o(.text) refers to lv_obj.o(.constdata) for lv_obj_class
    lv_theme_mono.o(.text) refers to lv_tabview.o(.constdata) for lv_tabview_class
    lv_theme_mono.o(.text) refers to lv_win.o(.constdata) for lv_win_class
    lv_theme_mono.o(.text) refers to lv_btn.o(.constdata) for lv_btn_class
    lv_theme_mono.o(.text) refers to lv_btnmatrix.o(.constdata) for lv_btnmatrix_class
    lv_theme_mono.o(.text) refers to lv_msgbox.o(.constdata) for lv_msgbox_class
    lv_theme_mono.o(.text) refers to lv_bar.o(.constdata) for lv_bar_class
    lv_theme_mono.o(.text) refers to lv_slider.o(.constdata) for lv_slider_class
    lv_theme_mono.o(.text) refers to lv_table.o(.constdata) for lv_table_class
    lv_theme_mono.o(.text) refers to lv_checkbox.o(.constdata) for lv_checkbox_class
    lv_theme_mono.o(.text) refers to lv_switch.o(.constdata) for lv_switch_class
    lv_theme_mono.o(.text) refers to lv_chart.o(.constdata) for lv_chart_class
    lv_theme_mono.o(.text) refers to lv_roller.o(.constdata) for lv_roller_class
    lv_theme_mono.o(.text) refers to lv_dropdown.o(.constdata) for lv_dropdown_class
    lv_theme_mono.o(.text) refers to lv_arc.o(.constdata) for lv_arc_class
    lv_theme_mono.o(.text) refers to lv_meter.o(.constdata) for lv_meter_class
    lv_theme_mono.o(.text) refers to lv_textarea.o(.constdata) for lv_textarea_class
    lv_theme_mono.o(.text) refers to lv_mem.o(.text) for lv_mem_alloc
    lv_theme_mono.o(.text) refers to lv_disp.o(.text) for lv_disp_get_theme
    lv_theme_mono.o(.text) refers to lv_style.o(.text) for lv_style_reset
    lv_theme_mono.o(.text) refers to lv_calendar.o(.constdata) for lv_calendar_class
    lv_theme_mono.o(.text) refers to lv_keyboard.o(.constdata) for lv_keyboard_class
    lv_theme_mono.o(.text) refers to lv_list.o(.constdata) for lv_list_class
    lv_theme_mono.o(.text) refers to lv_spinbox.o(.constdata) for lv_spinbox_class
    lv_theme_mono.o(.text) refers to lv_tileview.o(.constdata) for lv_tileview_class
    lv_theme_mono.o(.text) refers to lv_led.o(.constdata) for lv_led_class
    lv_theme_mono.o(.text) refers to lv_theme_mono.o(.bss) for .bss
    lv_theme_mono.o(.text) refers to lv_font_montserrat_14.o(.constdata) for lv_font_montserrat_14
    lv_animimg.o(.text) refers to lv_obj_class.o(.text) for lv_obj_class_create_obj
    lv_animimg.o(.text) refers to lv_anim.o(.text) for lv_anim_start
    lv_animimg.o(.text) refers to lv_img.o(.text) for lv_img_set_src
    lv_animimg.o(.text) refers to lv_animimg.o(.constdata) for .constdata
    lv_animimg.o(.constdata) refers to lv_img.o(.constdata) for lv_img_class
    lv_animimg.o(.constdata) refers to lv_animimg.o(.text) for lv_animimg_constructor
    lv_calendar.o(.text) refers to lv_obj_class.o(.text) for lv_obj_class_create_obj
    lv_calendar.o(.text) refers to lv_obj_pos.o(.text) for lv_obj_invalidate
    lv_calendar.o(.text) refers to lv_btnmatrix.o(.text) for lv_btnmatrix_clear_btn_ctrl_all
    lv_calendar.o(.text) refers to lv_printf.o(.text) for lv_snprintf
    lv_calendar.o(.text) refers to lv_obj_tree.o(.text) for lv_obj_get_child_cnt
    lv_calendar.o(.text) refers to lv_event.o(.text) for lv_event_send
    lv_calendar.o(.text) refers to lv_color.o(.text) for lv_palette_main
    lv_calendar.o(.text) refers to lv_theme.o(.text) for lv_theme_get_color_primary
    lv_calendar.o(.text) refers to lv_calendar.o(.constdata) for .constdata
    lv_calendar.o(.text) refers to lv_mem.o(.text) for lv_memset_00
    lv_calendar.o(.text) refers to lv_flex.o(.text) for lv_obj_set_flex_flow
    lv_calendar.o(.text) refers to lv_obj.o(.text) for lv_obj_add_flag
    lv_calendar.o(.text) refers to lv_calendar.o(.data) for .data
    lv_calendar.o(.constdata) refers to lv_obj.o(.constdata) for lv_obj_class
    lv_calendar.o(.constdata) refers to lv_calendar.o(.text) for lv_calendar_constructor
    lv_calendar.o(.data) refers to lv_calendar.o(.conststring) for .conststring
    lv_calendar_header_arrow.o(.text) refers to lv_obj_class.o(.text) for lv_obj_class_create_obj
    lv_calendar_header_arrow.o(.text) refers to lv_event.o(.text) for lv_event_get_target
    lv_calendar_header_arrow.o(.text) refers to lv_obj_tree.o(.text) for lv_obj_get_parent
    lv_calendar_header_arrow.o(.text) refers to lv_calendar.o(.text) for lv_calendar_get_showed_date
    lv_calendar_header_arrow.o(.text) refers to lv_label.o(.text) for lv_label_set_text_fmt
    lv_calendar_header_arrow.o(.text) refers to lv_flex.o(.text) for lv_obj_set_flex_flow
    lv_calendar_header_arrow.o(.text) refers to lv_btn.o(.text) for lv_btn_create
    lv_calendar_header_arrow.o(.text) refers to lv_obj_style_gen.o(.text) for lv_obj_set_style_bg_img_src
    lv_calendar_header_arrow.o(.text) refers to lv_obj_pos.o(.text) for lv_obj_set_height
    lv_calendar_header_arrow.o(.text) refers to lv_obj.o(.text) for lv_obj_clear_flag
    lv_calendar_header_arrow.o(.text) refers to lv_calendar_header_arrow.o(.constdata) for .constdata
    lv_calendar_header_arrow.o(.text) refers to lv_calendar_header_arrow.o(.data) for .data
    lv_calendar_header_arrow.o(.constdata) refers to lv_obj.o(.constdata) for lv_obj_class
    lv_calendar_header_arrow.o(.constdata) refers to lv_calendar_header_arrow.o(.text) for my_constructor
    lv_calendar_header_arrow.o(.data) refers to lv_calendar_header_arrow.o(.conststring) for .conststring
    lv_calendar_header_dropdown.o(.text) refers to lv_obj_class.o(.text) for lv_obj_class_create_obj
    lv_calendar_header_dropdown.o(.text) refers to lv_event.o(.text) for lv_event_get_target
    lv_calendar_header_dropdown.o(.text) refers to lv_obj_tree.o(.text) for lv_obj_get_parent
    lv_calendar_header_dropdown.o(.text) refers to lv_calendar.o(.text) for lv_calendar_get_showed_date
    lv_calendar_header_dropdown.o(.text) refers to lv_dropdown.o(.text) for lv_dropdown_set_selected
    lv_calendar_header_dropdown.o(.text) refers to lv_flex.o(.text) for lv_obj_set_flex_flow
    lv_calendar_header_dropdown.o(.text) refers to lv_calendar_header_dropdown.o(.constdata) for .constdata
    lv_calendar_header_dropdown.o(.text) refers to lv_calendar_header_dropdown.o(.data) for .data
    lv_calendar_header_dropdown.o(.constdata) refers to lv_obj.o(.constdata) for lv_obj_class
    lv_calendar_header_dropdown.o(.constdata) refers to lv_calendar_header_dropdown.o(.text) for my_constructor
    lv_calendar_header_dropdown.o(.data) refers to lv_calendar_header_dropdown.o(.conststring) for .conststring
    lv_chart.o(.text) refers to lv_obj_class.o(.text) for lv_obj_class_create_obj
    lv_chart.o(.text) refers to lv_obj_pos.o(.text) for lv_obj_invalidate
    lv_chart.o(.text) refers to lv_ll.o(.text) for _lv_ll_get_tail
    lv_chart.o(.text) refers to lv_mem.o(.text) for lv_mem_free
    lv_chart.o(.text) refers to lv_obj_scroll.o(.text) for lv_obj_readjust_scroll
    lv_chart.o(.text) refers to lv_obj_draw.o(.text) for lv_obj_refresh_ext_draw_size
    lv_chart.o(.text) refers to lv_math.o(.text) for lv_map
    lv_chart.o(.text) refers to lv_chart.o(.constdata) for .constdata
    lv_chart.o(.text) refers to lv_obj_style.o(.text) for lv_obj_get_style_prop
    lv_chart.o(.text) refers to lv_area.o(.text) for _lv_area_intersect
    lv_chart.o(.text) refers to lv_draw_line.o(.text) for lv_draw_line_dsc_init
    lv_chart.o(.text) refers to lv_draw_rect.o(.text) for lv_draw_rect_dsc_init
    lv_chart.o(.text) refers to lv_event.o(.text) for lv_event_send
    lv_chart.o(.text) refers to lv_draw_label.o(.text) for lv_draw_label_dsc_init
    lv_chart.o(.text) refers to lv_printf.o(.text) for lv_snprintf
    lv_chart.o(.text) refers to lv_txt.o(.text) for lv_txt_get_size
    lv_chart.o(.text) refers to lv_indev.o(.text) for lv_indev_get_act
    lv_chart.o(.constdata) refers to lv_obj.o(.constdata) for lv_obj_class
    lv_chart.o(.constdata) refers to lv_chart.o(.text) for lv_chart_constructor
    lv_colorwheel.o(.text) refers to lv_obj_class.o(.text) for lv_obj_class_create_obj
    lv_colorwheel.o(.text) refers to lv_obj_pos.o(.text) for lv_obj_get_width
    lv_colorwheel.o(.text) refers to lv_math.o(.text) for lv_trigo_sin
    lv_colorwheel.o(.text) refers to lv_color.o(.text) for lv_color_rgb_to_hsv
    lv_colorwheel.o(.text) refers to lv_obj.o(.text) for lv_obj_add_flag
    lv_colorwheel.o(.text) refers to lv_colorwheel.o(.data) for .data
    lv_colorwheel.o(.text) refers to lv_colorwheel.o(.constdata) for .constdata
    lv_colorwheel.o(.text) refers to lv_event.o(.text) for lv_event_get_target
    lv_colorwheel.o(.text) refers to lv_draw_line.o(.text) for lv_draw_line_dsc_init
    lv_colorwheel.o(.text) refers to lv_obj_draw.o(.text) for lv_obj_init_draw_line_dsc
    lv_colorwheel.o(.text) refers to lv_draw_mask.o(.text) for lv_draw_mask_radius_init
    lv_colorwheel.o(.text) refers to lv_hal_tick.o(.text) for lv_tick_get
    lv_colorwheel.o(.text) refers to lv_indev.o(.text) for lv_indev_get_act
    lv_colorwheel.o(.text) refers to lv_area.o(.text) for _lv_area_is_point_on
    lv_colorwheel.o(.text) refers to lv_draw_rect.o(.text) for lv_draw_rect_dsc_init
    lv_colorwheel.o(.text) refers to lv_obj_style.o(.text) for lv_obj_get_style_prop
    lv_colorwheel.o(.constdata) refers to lv_obj.o(.constdata) for lv_obj_class
    lv_colorwheel.o(.constdata) refers to lv_colorwheel.o(.text) for lv_colorwheel_constructor
    lv_imgbtn.o(.text) refers to lv_obj_class.o(.text) for lv_obj_class_create_obj
    lv_imgbtn.o(.text) refers to lv_obj.o(.text) for lv_obj_get_state
    lv_imgbtn.o(.text) refers to lv_img_decoder.o(.text) for lv_img_decoder_get_info
    lv_imgbtn.o(.text) refers to lv_obj_pos.o(.text) for lv_obj_invalidate
    lv_imgbtn.o(.text) refers to lv_mem.o(.text) for lv_memset_00
    lv_imgbtn.o(.text) refers to lv_event.o(.text) for lv_event_get_target
    lv_imgbtn.o(.text) refers to lv_obj_style.o(.text) for lv_obj_get_style_prop
    lv_imgbtn.o(.text) refers to lv_draw_img.o(.text) for lv_draw_img_dsc_init
    lv_imgbtn.o(.text) refers to lv_obj_draw.o(.text) for lv_obj_init_draw_img_dsc
    lv_imgbtn.o(.text) refers to lv_area.o(.text) for _lv_area_intersect
    lv_imgbtn.o(.text) refers to lv_imgbtn.o(.constdata) for .constdata
    lv_imgbtn.o(.constdata) refers to lv_obj.o(.constdata) for lv_obj_class
    lv_imgbtn.o(.constdata) refers to lv_imgbtn.o(.text) for lv_imgbtn_constructor
    lv_keyboard.o(.text) refers to lv_obj_class.o(.text) for lv_obj_class_create_obj
    lv_keyboard.o(.text) refers to lv_obj.o(.text) for lv_obj_clear_state
    lv_keyboard.o(.text) refers to lv_btnmatrix.o(.text) for lv_btnmatrix_set_ctrl_map
    lv_keyboard.o(.text) refers to lv_mem.o(.text) for lv_mem_alloc
    lv_keyboard.o(.text) refers to lv_event.o(.text) for lv_event_get_target
    lv_keyboard.o(.text) refers to strcmp.o(.text) for strcmp
    lv_keyboard.o(.text) refers to lv_textarea.o(.text) for lv_textarea_add_text
    lv_keyboard.o(.text) refers to lv_obj_pos.o(.text) for lv_obj_align
    lv_keyboard.o(.text) refers to lv_obj_style_gen.o(.text) for lv_obj_set_style_base_dir
    lv_keyboard.o(.text) refers to lv_keyboard.o(.constdata) for .constdata
    lv_keyboard.o(.text) refers to lv_keyboard.o(.data) for .data
    lv_keyboard.o(.constdata) refers to lv_btnmatrix.o(.constdata) for lv_btnmatrix_class
    lv_keyboard.o(.constdata) refers to lv_keyboard.o(.text) for lv_keyboard_constructor
    lv_keyboard.o(.constdata) refers to lv_keyboard.o(.conststring) for .conststring
    lv_keyboard.o(.constdata) refers to lv_keyboard.o(.conststring) for .conststring
    lv_keyboard.o(.constdata) refers to lv_keyboard.o(.conststring) for .conststring
    lv_keyboard.o(.constdata) refers to lv_keyboard.o(.conststring) for .conststring
    lv_keyboard.o(.data) refers to lv_keyboard.o(.constdata) for default_kb_map_lc
    lv_keyboard.o(.data) refers to lv_keyboard.o(.constdata) for default_kb_map_uc
    lv_keyboard.o(.data) refers to lv_keyboard.o(.constdata) for default_kb_map_spec
    lv_keyboard.o(.data) refers to lv_keyboard.o(.constdata) for default_kb_map_num
    lv_keyboard.o(.data) refers to lv_keyboard.o(.constdata) for default_kb_ctrl_lc_map
    lv_keyboard.o(.data) refers to lv_keyboard.o(.constdata) for default_kb_ctrl_uc_map
    lv_keyboard.o(.data) refers to lv_keyboard.o(.constdata) for default_kb_ctrl_spec_map
    lv_keyboard.o(.data) refers to lv_keyboard.o(.constdata) for default_kb_ctrl_num_map
    lv_led.o(.text) refers to lv_obj_class.o(.text) for lv_obj_class_create_obj
    lv_led.o(.text) refers to lv_obj_pos.o(.text) for lv_obj_invalidate
    lv_led.o(.text) refers to lv_theme.o(.text) for lv_theme_get_color_primary
    lv_led.o(.text) refers to lv_event.o(.text) for lv_event_get_code
    lv_led.o(.text) refers to lv_draw_rect.o(.text) for lv_draw_rect_dsc_init
    lv_led.o(.text) refers to lv_obj_draw.o(.text) for lv_obj_init_draw_rect_dsc
    lv_led.o(.text) refers to lv_led.o(.constdata) for .constdata
    lv_led.o(.constdata) refers to lv_obj.o(.constdata) for lv_obj_class
    lv_led.o(.constdata) refers to lv_led.o(.text) for lv_led_constructor
    lv_list.o(.text) refers to lv_obj_class.o(.text) for lv_obj_class_create_obj
    lv_list.o(.text) refers to lv_flex.o(.text) for lv_obj_set_flex_flow
    lv_list.o(.text) refers to lv_label.o(.text) for lv_label_set_text
    lv_list.o(.text) refers to lv_obj_pos.o(.text) for lv_obj_set_width
    lv_list.o(.text) refers to lv_img.o(.text) for lv_img_create
    lv_list.o(.text) refers to lv_obj_tree.o(.text) for lv_obj_get_child
    lv_list.o(.text) refers to lv_obj.o(.text) for lv_obj_check_type
    lv_list.o(.text) refers to lv_list.o(.constdata) for .constdata
    lv_list.o(.text) refers to lv_label.o(.constdata) for lv_label_class
    lv_list.o(.constdata) refers to lv_obj.o(.constdata) for lv_obj_class
    lv_list.o(.constdata) refers to lv_btn.o(.constdata) for lv_btn_class
    lv_list.o(.constdata) refers to lv_label.o(.constdata) for lv_label_class
    lv_menu.o(.text) refers to lv_obj_class.o(.text) for lv_obj_class_create_obj
    lv_menu.o(.text) refers to strlen.o(.text) for strlen
    lv_menu.o(.text) refers to lv_mem.o(.text) for lv_mem_alloc
    lv_menu.o(.text) refers to strcpy.o(.text) for strcpy
    lv_menu.o(.text) refers to lv_obj_tree.o(.text) for lv_obj_move_to_index
    lv_menu.o(.text) refers to lv_flex.o(.text) for lv_obj_set_flex_grow
    lv_menu.o(.text) refers to lv_obj_pos.o(.text) for lv_obj_refr_size
    lv_menu.o(.text) refers to lv_obj.o(.text) for lv_obj_clear_flag
    lv_menu.o(.text) refers to lv_ll.o(.text) for _lv_ll_clear
    lv_menu.o(.text) refers to lv_event.o(.text) for lv_event_send
    lv_menu.o(.text) refers to lv_btn.o(.text) for lv_btn_create
    lv_menu.o(.text) refers to lv_menu.o(.constdata) for .constdata
    lv_menu.o(.text) refers to lv_img.o(.text) for lv_img_create
    lv_menu.o(.text) refers to lv_label.o(.text) for lv_label_create
    lv_menu.o(.text) refers to lv_group.o(.text) for lv_group_get_default
    lv_menu.o(.text) refers to lv_flex.o(.data) for LV_LAYOUT_FLEX
    lv_menu.o(.constdata) refers to lv_obj.o(.constdata) for lv_obj_class
    lv_menu.o(.constdata) refers to lv_menu.o(.text) for lv_menu_constructor
    lv_meter.o(.text) refers to lv_obj_class.o(.text) for lv_obj_class_create_obj
    lv_meter.o(.text) refers to lv_ll.o(.text) for _lv_ll_ins_head
    lv_meter.o(.text) refers to lv_mem.o(.text) for lv_memset_00
    lv_meter.o(.text) refers to lv_obj_pos.o(.text) for lv_obj_invalidate
    lv_meter.o(.text) refers to lv_math.o(.text) for lv_map
    lv_meter.o(.text) refers to lv_img_decoder.o(.text) for lv_img_decoder_get_info
    lv_meter.o(.text) refers to lv_img_buf.o(.text) for _lv_img_buf_get_transformed_area
    lv_meter.o(.text) refers to lv_draw_arc.o(.text) for lv_draw_arc_get_area
    lv_meter.o(.text) refers to lv_meter.o(.constdata) for .constdata
    lv_meter.o(.text) refers to lv_draw_line.o(.text) for lv_draw_line_dsc_init
    lv_meter.o(.text) refers to lv_obj_draw.o(.text) for lv_obj_init_draw_line_dsc
    lv_meter.o(.text) refers to lv_draw_img.o(.text) for lv_draw_img_dsc_init
    lv_meter.o(.text) refers to lv_obj_style.o(.text) for lv_obj_get_style_opa_recursive
    lv_meter.o(.text) refers to lv_event.o(.text) for lv_event_send
    lv_meter.o(.text) refers to lv_draw_label.o(.text) for lv_draw_label_dsc_init
    lv_meter.o(.text) refers to lv_draw_mask.o(.text) for lv_draw_mask_radius_init
    lv_meter.o(.text) refers to lv_area.o(.text) for lv_point_transform
    lv_meter.o(.text) refers to lv_printf.o(.text) for lv_snprintf
    lv_meter.o(.text) refers to lv_txt.o(.text) for lv_txt_get_size
    lv_meter.o(.text) refers to lv_draw_rect.o(.text) for lv_draw_rect_dsc_init
    lv_meter.o(.constdata) refers to lv_obj.o(.constdata) for lv_obj_class
    lv_meter.o(.constdata) refers to lv_meter.o(.text) for lv_meter_constructor
    lv_msgbox.o(.text) refers to lv_obj.o(.text) for lv_obj_has_flag
    lv_msgbox.o(.text) refers to lv_obj_tree.o(.text) for lv_obj_get_parent
    lv_msgbox.o(.text) refers to lv_event.o(.text) for lv_event_get_target
    lv_msgbox.o(.text) refers to lv_hal_disp.o(.text) for lv_disp_get_default
    lv_msgbox.o(.text) refers to lv_disp.o(.text) for lv_disp_get_layer_top
    lv_msgbox.o(.text) refers to lv_obj_class.o(.text) for lv_obj_class_create_obj
    lv_msgbox.o(.text) refers to lv_obj_pos.o(.text) for lv_obj_set_size
    lv_msgbox.o(.text) refers to lv_flex.o(.text) for lv_obj_set_flex_flow
    lv_msgbox.o(.text) refers to strlen.o(.text) for strlen
    lv_msgbox.o(.text) refers to lv_label.o(.text) for lv_label_create
    lv_msgbox.o(.text) refers to lv_btn.o(.text) for lv_btn_create
    lv_msgbox.o(.text) refers to lv_btnmatrix.o(.text) for lv_btnmatrix_create
    lv_msgbox.o(.text) refers to lv_obj_style_gen.o(.text) for lv_obj_set_style_max_width
    lv_msgbox.o(.text) refers to lv_obj_style.o(.text) for lv_obj_get_style_prop
    lv_msgbox.o(.text) refers to lv_msgbox.o(.constdata) for .constdata
    lv_msgbox.o(.constdata) refers to lv_obj.o(.constdata) for lv_obj_class
    lv_span.o(.text) refers to lv_obj_class.o(.text) for lv_obj_class_create_obj
    lv_span.o(.text) refers to lv_ll.o(.text) for _lv_ll_ins_tail
    lv_span.o(.text) refers to lv_style.o(.text) for lv_style_init
    lv_span.o(.text) refers to lv_mem.o(.text) for lv_mem_free
    lv_span.o(.text) refers to strlen.o(.text) for strlen
    lv_span.o(.text) refers to strcpy.o(.text) for strcpy
    lv_span.o(.text) refers to lv_obj_style_gen.o(.text) for lv_obj_set_style_text_align
    lv_span.o(.text) refers to lv_obj_pos.o(.text) for lv_obj_invalidate
    lv_span.o(.text) refers to lv_txt.o(.text) for _lv_txt_get_next_line
    lv_span.o(.text) refers to memseta.o(.text) for __aeabi_memclr4
    lv_span.o(.text) refers to lv_obj_style.o(.text) for lv_obj_get_style_prop
    lv_span.o(.text) refers to lv_span.o(.constdata) for .constdata
    lv_span.o(.text) refers to lv_txt.o(.data) for _lv_txt_encoded_prev
    lv_span.o(.text) refers to lv_txt.o(.data) for _lv_txt_encoded_next
    lv_span.o(.text) refers to lv_font.o(.text) for lv_font_get_glyph_width
    lv_span.o(.text) refers to lv_area.o(.text) for _lv_area_intersect
    lv_span.o(.text) refers to lv_draw_label.o(.text) for lv_draw_label_dsc_init
    lv_span.o(.text) refers to memmovea.o(.text) for __aeabi_memcpy4
    lv_span.o(.text) refers to lv_span.o(.bss) for .bss
    lv_span.o(.text) refers to lv_draw_line.o(.text) for lv_draw_line_dsc_init
    lv_span.o(.text) refers to lv_event.o(.text) for lv_obj_event_base
    lv_span.o(.constdata) refers to lv_obj.o(.constdata) for lv_obj_class
    lv_span.o(.constdata) refers to lv_span.o(.text) for lv_spangroup_constructor
    lv_spinbox.o(.text) refers to lv_obj_class.o(.text) for lv_obj_class_create_obj
    lv_spinbox.o(.text) refers to lv_mem.o(.text) for lv_memset_00
    lv_spinbox.o(.text) refers to lv_printf.o(.text) for lv_snprintf
    lv_spinbox.o(.text) refers to strlen.o(.text) for strlen
    lv_spinbox.o(.text) refers to lv_textarea.o(.text) for lv_textarea_set_text
    lv_spinbox.o(.text) refers to lv_math.o(.text) for lv_pow
    lv_spinbox.o(.text) refers to lv_event.o(.text) for lv_obj_event_base
    lv_spinbox.o(.text) refers to lv_indev.o(.text) for lv_indev_get_act
    lv_spinbox.o(.text) refers to lv_obj.o(.text) for lv_obj_get_group
    lv_spinbox.o(.text) refers to lv_group.o(.text) for lv_group_get_editing
    lv_spinbox.o(.text) refers to lv_spinbox.o(.constdata) for .constdata
    lv_spinbox.o(.constdata) refers to lv_textarea.o(.constdata) for lv_textarea_class
    lv_spinbox.o(.constdata) refers to lv_spinbox.o(.text) for lv_spinbox_constructor
    lv_spinner.o(.text) refers to lv_obj_class.o(.text) for lv_obj_class_create_obj
    lv_spinner.o(.text) refers to lv_arc.o(.text) for lv_arc_set_start_angle
    lv_spinner.o(.text) refers to lv_obj.o(.text) for lv_obj_clear_flag
    lv_spinner.o(.text) refers to lv_anim.o(.text) for lv_anim_init
    lv_spinner.o(.text) refers to lv_spinner.o(.data) for .data
    lv_spinner.o(.text) refers to lv_spinner.o(.constdata) for .constdata
    lv_spinner.o(.constdata) refers to lv_arc.o(.constdata) for lv_arc_class
    lv_spinner.o(.constdata) refers to lv_spinner.o(.text) for lv_spinner_constructor
    lv_tabview.o(.text) refers to lv_obj_class.o(.text) for lv_obj_class_create_obj
    lv_tabview.o(.text) refers to lv_obj_tree.o(.text) for lv_obj_get_child
    lv_tabview.o(.text) refers to lv_obj_pos.o(.text) for lv_obj_update_layout
    lv_tabview.o(.text) refers to lv_obj_style.o(.text) for lv_obj_get_style_prop
    lv_tabview.o(.text) refers to lv_obj_scroll.o(.text) for lv_obj_scroll_to_x
    lv_tabview.o(.text) refers to lv_btnmatrix.o(.text) for lv_btnmatrix_set_btn_ctrl
    lv_tabview.o(.text) refers to lv_obj.o(.text) for lv_obj_create
    lv_tabview.o(.text) refers to lv_mem.o(.text) for lv_mem_alloc
    lv_tabview.o(.text) refers to strlen.o(.text) for strlen
    lv_tabview.o(.text) refers to strcpy.o(.text) for strcpy
    lv_tabview.o(.text) refers to lv_event.o(.text) for lv_event_get_target
    lv_tabview.o(.text) refers to lv_indev.o(.text) for lv_indev_get_act
    lv_tabview.o(.text) refers to lv_flex.o(.text) for lv_obj_set_flex_flow
    lv_tabview.o(.text) refers to lv_group.o(.text) for lv_group_get_default
    lv_tabview.o(.text) refers to lv_tabview.o(.data) for .data
    lv_tabview.o(.text) refers to lv_tabview.o(.constdata) for .constdata
    lv_tabview.o(.constdata) refers to lv_obj.o(.constdata) for lv_obj_class
    lv_tabview.o(.constdata) refers to lv_tabview.o(.text) for lv_tabview_constructor
    lv_tileview.o(.text) refers to lv_obj_class.o(.text) for lv_obj_class_create_obj
    lv_tileview.o(.text) refers to lv_obj_pos.o(.text) for lv_obj_get_x
    lv_tileview.o(.text) refers to lv_obj_scroll.o(.text) for lv_obj_set_scroll_dir
    lv_tileview.o(.text) refers to lv_obj_tree.o(.text) for lv_obj_get_child
    lv_tileview.o(.text) refers to lv_event.o(.text) for lv_event_get_code
    lv_tileview.o(.text) refers to lv_indev.o(.text) for lv_indev_get_act
    lv_tileview.o(.text) refers to lv_obj.o(.text) for lv_obj_add_flag
    lv_tileview.o(.text) refers to lv_tileview.o(.constdata) for .constdata
    lv_tileview.o(.text) refers to lv_tileview.o(.data) for .data
    lv_tileview.o(.constdata) refers to lv_obj.o(.constdata) for lv_obj_class
    lv_tileview.o(.constdata) refers to lv_tileview.o(.text) for lv_tileview_constructor
    lv_win.o(.text) refers to lv_obj_class.o(.text) for lv_obj_class_create_obj
    lv_win.o(.text) refers to lv_obj_tree.o(.text) for lv_obj_get_child
    lv_win.o(.text) refers to lv_label.o(.text) for lv_label_create
    lv_win.o(.text) refers to lv_flex.o(.text) for lv_obj_set_flex_grow
    lv_win.o(.text) refers to lv_btn.o(.text) for lv_btn_create
    lv_win.o(.text) refers to lv_obj_pos.o(.text) for lv_obj_set_size
    lv_win.o(.text) refers to lv_img.o(.text) for lv_img_create
    lv_win.o(.text) refers to lv_obj.o(.text) for lv_obj_create
    lv_win.o(.text) refers to lv_win.o(.data) for .data
    lv_win.o(.text) refers to lv_win.o(.constdata) for .constdata
    lv_win.o(.constdata) refers to lv_obj.o(.constdata) for lv_obj_class
    lv_win.o(.constdata) refers to lv_win.o(.text) for lv_win_constructor
    lv_font_fmt_txt.o(.text) refers to lv_utils.o(.text) for _lv_utils_bsearch
    lv_font_loader.o(.text) refers to lv_mem.o(.text) for lv_mem_free
    lv_font_loader.o(.text) refers to lv_fs.o(.text) for lv_fs_seek
    lv_font_loader.o(.text) refers to memcmp.o(.text) for memcmp
    lv_font_loader.o(.text) refers to memseta.o(.text) for __aeabi_memclr4
    lv_font_loader.o(.text) refers to lv_font_fmt_txt.o(.text) for lv_font_get_glyph_dsc_fmt_txt
    lv_font_montserrat_14.o(.constdata) refers to lv_font_montserrat_14.o(.constdata) for unicode_list_1
    lv_font_montserrat_14.o(.constdata) refers to lv_font_montserrat_14.o(.constdata) for kern_class_values
    lv_font_montserrat_14.o(.constdata) refers to lv_font_montserrat_14.o(.constdata) for kern_left_class_mapping
    lv_font_montserrat_14.o(.constdata) refers to lv_font_montserrat_14.o(.constdata) for kern_right_class_mapping
    lv_font_montserrat_14.o(.constdata) refers to lv_font_montserrat_14.o(.constdata) for glyph_bitmap
    lv_font_montserrat_14.o(.constdata) refers to lv_font_montserrat_14.o(.constdata) for glyph_dsc
    lv_font_montserrat_14.o(.constdata) refers to lv_font_montserrat_14.o(.constdata) for cmaps
    lv_font_montserrat_14.o(.constdata) refers to lv_font_montserrat_14.o(.constdata) for kern_classes
    lv_font_montserrat_14.o(.constdata) refers to lv_font_montserrat_14.o(.data) for cache
    lv_font_montserrat_14.o(.constdata) refers to lv_font_fmt_txt.o(.text) for lv_font_get_glyph_dsc_fmt_txt
    lv_font_montserrat_14.o(.constdata) refers to lv_font_montserrat_14.o(.constdata) for font_dsc
    lv_font_montserrat_32.o(.constdata) refers to lv_font_montserrat_32.o(.constdata) for unicode_list_1
    lv_font_montserrat_32.o(.constdata) refers to lv_font_montserrat_32.o(.constdata) for kern_class_values
    lv_font_montserrat_32.o(.constdata) refers to lv_font_montserrat_32.o(.constdata) for kern_left_class_mapping
    lv_font_montserrat_32.o(.constdata) refers to lv_font_montserrat_32.o(.constdata) for kern_right_class_mapping
    lv_font_montserrat_32.o(.constdata) refers to lv_font_montserrat_32.o(.constdata) for glyph_bitmap
    lv_font_montserrat_32.o(.constdata) refers to lv_font_montserrat_32.o(.constdata) for glyph_dsc
    lv_font_montserrat_32.o(.constdata) refers to lv_font_montserrat_32.o(.constdata) for cmaps
    lv_font_montserrat_32.o(.constdata) refers to lv_font_montserrat_32.o(.constdata) for kern_classes
    lv_font_montserrat_32.o(.constdata) refers to lv_font_montserrat_32.o(.data) for cache
    lv_font_montserrat_32.o(.constdata) refers to lv_font_fmt_txt.o(.text) for lv_font_get_glyph_dsc_fmt_txt
    lv_font_montserrat_32.o(.constdata) refers to lv_font_montserrat_32.o(.constdata) for font_dsc
    lv_hal_disp.o(.text) refers to lv_mem.o(.text) for lv_memset_00
    lv_hal_disp.o(.text) refers to lv_ll.o(.text) for _lv_ll_ins_head
    lv_hal_disp.o(.text) refers to lv_timer.o(.text) for lv_timer_create
    lv_hal_disp.o(.text) refers to lv_theme_default.o(.text) for lv_theme_default_is_inited
    lv_hal_disp.o(.text) refers to lv_obj.o(.text) for lv_obj_create
    lv_hal_disp.o(.text) refers to lv_obj_style.o(.text) for lv_obj_remove_style
    lv_hal_disp.o(.text) refers to lv_obj_scroll.o(.text) for lv_obj_set_scrollbar_mode
    lv_hal_disp.o(.text) refers to lv_obj_pos.o(.text) for lv_obj_invalidate
    lv_hal_disp.o(.text) refers to lv_color.o(.text) for lv_palette_main
    lv_hal_disp.o(.text) refers to lv_area.o(.text) for lv_area_set_width
    lv_hal_disp.o(.text) refers to lv_event.o(.text) for lv_event_send
    lv_hal_disp.o(.text) refers to lv_obj_tree.o(.text) for lv_obj_tree_walk
    lv_hal_disp.o(.text) refers to lv_hal_indev.o(.text) for lv_indev_get_next
    lv_hal_disp.o(.text) refers to lv_draw_sw.o(.text) for lv_draw_sw_init_ctx
    lv_hal_disp.o(.text) refers to lv_gc.o(.bss) for _lv_disp_ll
    lv_hal_disp.o(.text) refers to lv_hal_disp.o(.data) for .data
    lv_hal_disp.o(.text) refers to lv_refr.o(.text) for _lv_disp_refr_timer
    lv_hal_disp.o(.text) refers to lv_font_montserrat_14.o(.constdata) for lv_font_montserrat_14
    lv_hal_disp.o(.text) refers to lv_img_buf.o(.text) for lv_img_buf_get_px_alpha
    lv_hal_indev.o(.text) refers to lv_mem.o(.text) for lv_memset_00
    lv_hal_indev.o(.text) refers to lv_hal_disp.o(.text) for lv_disp_get_default
    lv_hal_indev.o(.text) refers to lv_ll.o(.text) for _lv_ll_ins_head
    lv_hal_indev.o(.text) refers to lv_timer.o(.text) for lv_timer_create
    lv_hal_indev.o(.text) refers to lv_gc.o(.bss) for _lv_indev_ll
    lv_hal_indev.o(.text) refers to lv_indev.o(.text) for lv_indev_read_timer_cb
    lv_hal_tick.o(.text) refers to lv_hal_tick.o(.data) for .data
    lv_anim.o(.text) refers to lv_hal_tick.o(.text) for lv_tick_elaps
    lv_anim.o(.text) refers to lv_ll.o(.text) for _lv_ll_get_head
    lv_anim.o(.text) refers to lv_timer.o(.text) for lv_timer_create
    lv_anim.o(.text) refers to lv_math.o(.text) for lv_map
    lv_anim.o(.text) refers to lv_mem.o(.text) for lv_memset_00
    lv_anim.o(.text) refers to lv_anim.o(.data) for .data
    lv_anim.o(.text) refers to lv_gc.o(.bss) for _lv_anim_ll
    lv_anim_timeline.o(.text) refers to lv_mem.o(.text) for lv_mem_alloc
    lv_anim_timeline.o(.text) refers to lv_anim.o(.text) for lv_anim_del
    lv_anim_timeline.o(.text) refers to memmovea.o(.text) for __aeabi_memcpy4
    lv_area.o(.text) refers to lv_math.o(.text) for lv_trigo_sin
    lv_area.o(.text) refers to lv_area.o(.data) for .data
    lv_async.o(.text) refers to lv_mem.o(.text) for lv_mem_free
    lv_async.o(.text) refers to lv_timer.o(.text) for lv_timer_create
    lv_color.o(.text) refers to lv_color.o(.constdata) for .constdata
    lv_fs.o(.text) refers to lv_ll.o(.text) for _lv_ll_init
    lv_fs.o(.text) refers to lv_mem.o(.text) for lv_mem_alloc
    lv_fs.o(.text) refers to lv_gc.o(.bss) for _lv_fsdrv_ll
    lv_fs.o(.text) refers to strlen.o(.text) for strlen
    lv_gc.o(.text) refers to lv_mem.o(.text) for lv_memset_00
    lv_gc.o(.text) refers to lv_gc.o(.bss) for .bss
    lv_gc.o(.text) refers to lv_gc.o(.data) for .data
    lv_ll.o(.text) refers to lv_mem.o(.text) for lv_mem_alloc
    lv_lru.o(.text) refers to lv_mem.o(.text) for lv_mem_alloc
    lv_lru.o(.text) refers to lv_math.o(.text) for lv_rand
    lv_lru.o(.text) refers to memmovea.o(.text) for __aeabi_memcpy
    lv_lru.o(.text) refers to memcmp.o(.text) for memcmp
    lv_math.o(.text) refers to lv_math.o(.constdata) for .constdata
    lv_math.o(.text) refers to lv_math.o(.data) for .data
    lv_mem.o(.text) refers to lv_tlsf.o(.text) for lv_tlsf_create_with_pool
    lv_mem.o(.text) refers to lv_mem.o(.bss) for .bss
    lv_mem.o(.text) refers to lv_mem.o(.data) for .data
    lv_mem.o(.text) refers to lv_gc.o(.bss) for lv_mem_buf
    lv_printf.o(.text) refers to uldiv.o(.text) for __aeabi_uldivmod
    lv_style.o(.text) refers to lv_mem.o(.text) for lv_memset_00
    lv_style.o(.text) refers to lv_font_montserrat_14.o(.constdata) for lv_font_montserrat_14
    lv_style.o(.text) refers to lv_gc.o(.data) for _lv_style_custom_prop_flag_lookup_table
    lv_style.o(.text) refers to lv_style.o(.data) for .data
    lv_style.o(.text) refers to lv_style.o(.constdata) for .constdata
    lv_style.o(.text) refers to lv_anim.o(.text) for lv_anim_path_linear
    lv_style_gen.o(.text) refers to lv_style.o(.text) for lv_style_set_prop
    lv_timer.o(.text) refers to lv_ll.o(.text) for _lv_ll_init
    lv_timer.o(.text) refers to lv_mem.o(.text) for lv_mem_free
    lv_timer.o(.text) refers to lv_hal_tick.o(.text) for lv_tick_get
    lv_timer.o(.text) refers to lv_timer.o(.data) for .data
    lv_timer.o(.text) refers to lv_gc.o(.bss) for _lv_timer_ll
    lv_timer.o(.text) refers to lv_gc.o(.data) for _lv_timer_act
    lv_tlsf.o(.text) refers to lv_mem.o(.text) for lv_memcpy
    lv_txt.o(.text) refers to lv_font.o(.text) for lv_font_get_glyph_width
    lv_txt.o(.text) refers to strlen.o(.text) for strlen
    lv_txt.o(.text) refers to lv_txt.o(.data) for .data
    lv_txt.o(.text) refers to lv_printf.o(.text) for lv_vsnprintf
    lv_txt.o(.text) refers to lv_mem.o(.text) for lv_mem_alloc
    lv_txt.o(.data) refers to lv_txt.o(.text) for lv_txt_utf8_size
    lv_txt.o(.data) refers to lv_txt.o(.text) for lv_txt_unicode_to_utf8
    lv_txt.o(.data) refers to lv_txt.o(.text) for lv_txt_utf8_conv_wc
    lv_txt.o(.data) refers to lv_txt.o(.text) for lv_txt_utf8_prev
    lv_txt.o(.data) refers to lv_txt.o(.text) for lv_txt_utf8_get_char_id
    lv_txt.o(.data) refers to lv_txt.o(.text) for lv_txt_utf8_get_length
    lv_arc.o(.text) refers to lv_obj_class.o(.text) for lv_obj_class_create_obj
    lv_arc.o(.text) refers to lv_obj_style.o(.text) for lv_obj_get_style_prop
    lv_arc.o(.text) refers to lv_math.o(.text) for lv_trigo_sin
    lv_arc.o(.text) refers to lv_obj_pos.o(.text) for lv_obj_get_width
    lv_arc.o(.text) refers to lv_area.o(.text) for lv_area_increase
    lv_arc.o(.text) refers to lv_draw_arc.o(.text) for lv_draw_arc_get_area
    lv_arc.o(.text) refers to lv_arc.o(.constdata) for .constdata
    lv_arc.o(.text) refers to lv_obj_style_gen.o(.text) for lv_obj_set_style_transform_pivot_x
    lv_arc.o(.text) refers to lv_hal_tick.o(.text) for lv_tick_get
    lv_arc.o(.text) refers to lv_obj.o(.text) for lv_obj_add_flag
    lv_arc.o(.text) refers to lv_event.o(.text) for lv_event_get_target
    lv_arc.o(.text) refers to lv_obj_draw.o(.text) for lv_obj_draw_dsc_init
    lv_arc.o(.text) refers to lv_draw_rect.o(.text) for lv_draw_rect_dsc_init
    lv_arc.o(.text) refers to lv_indev.o(.text) for lv_indev_get_act
    lv_arc.o(.text) refers to lv_hal_disp.o(.text) for lv_disp_get_dpi
    lv_arc.o(.text) refers to lv_group.o(.text) for lv_group_get_editing
    lv_arc.o(.constdata) refers to lv_obj.o(.constdata) for lv_obj_class
    lv_arc.o(.constdata) refers to lv_arc.o(.text) for lv_arc_constructor
    lv_bar.o(.text) refers to lv_obj_class.o(.text) for lv_obj_class_create_obj
    lv_bar.o(.text) refers to lv_obj_pos.o(.text) for lv_obj_invalidate
    lv_bar.o(.text) refers to lv_anim.o(.text) for lv_anim_del
    lv_bar.o(.text) refers to lv_obj_style.o(.text) for lv_obj_get_style_prop
    lv_bar.o(.text) refers to lv_obj.o(.text) for lv_obj_clear_flag
    lv_bar.o(.text) refers to lv_event.o(.text) for lv_event_get_target
    lv_bar.o(.text) refers to lv_bar.o(.constdata) for .constdata
    lv_bar.o(.text) refers to lv_obj_draw.o(.text) for lv_obj_draw_dsc_init
    lv_bar.o(.text) refers to lv_draw_rect.o(.text) for lv_draw_rect_dsc_init
    lv_bar.o(.text) refers to lv_draw_mask.o(.text) for lv_draw_mask_radius_init
    lv_bar.o(.constdata) refers to lv_obj.o(.constdata) for lv_obj_class
    lv_bar.o(.constdata) refers to lv_bar.o(.text) for lv_bar_constructor
    lv_btn.o(.text) refers to lv_obj_class.o(.text) for lv_obj_class_create_obj
    lv_btn.o(.text) refers to lv_obj.o(.text) for lv_obj_clear_flag
    lv_btn.o(.text) refers to lv_btn.o(.constdata) for .constdata
    lv_btn.o(.constdata) refers to lv_obj.o(.constdata) for lv_obj_class
    lv_btn.o(.constdata) refers to lv_btn.o(.text) for lv_btn_constructor
    lv_btnmatrix.o(.text) refers to lv_obj_class.o(.text) for lv_obj_class_create_obj
    lv_btnmatrix.o(.text) refers to lv_obj_style.o(.text) for lv_obj_get_style_prop
    lv_btnmatrix.o(.text) refers to lv_obj_pos.o(.text) for lv_obj_get_content_width
    lv_btnmatrix.o(.text) refers to strcmp.o(.text) for strcmp
    lv_btnmatrix.o(.text) refers to lv_area.o(.text) for lv_area_set
    lv_btnmatrix.o(.text) refers to lv_obj_draw.o(.text) for lv_obj_refresh_ext_draw_size
    lv_btnmatrix.o(.text) refers to lv_mem.o(.text) for lv_memcpy
    lv_btnmatrix.o(.text) refers to lv_obj_tree.o(.text) for lv_obj_get_disp
    lv_btnmatrix.o(.text) refers to lv_hal_disp.o(.text) for lv_disp_get_dpi
    lv_btnmatrix.o(.text) refers to lv_obj.o(.text) for lv_obj_has_flag
    lv_btnmatrix.o(.text) refers to lv_btnmatrix.o(.constdata) for .constdata
    lv_btnmatrix.o(.text) refers to lv_event.o(.text) for lv_event_get_target
    lv_btnmatrix.o(.text) refers to lv_draw_rect.o(.text) for lv_draw_rect_dsc_init
    lv_btnmatrix.o(.text) refers to lv_draw_label.o(.text) for lv_draw_label_dsc_init
    lv_btnmatrix.o(.text) refers to lv_txt.o(.text) for lv_txt_get_size
    lv_btnmatrix.o(.text) refers to lv_btnmatrix.o(.data) for .data
    lv_btnmatrix.o(.text) refers to lv_indev.o(.text) for lv_indev_get_act
    lv_btnmatrix.o(.text) refers to lv_hal_indev.o(.text) for lv_indev_get_next
    lv_btnmatrix.o(.text) refers to lv_group.o(.text) for lv_group_get_editing
    lv_btnmatrix.o(.constdata) refers to lv_obj.o(.constdata) for lv_obj_class
    lv_btnmatrix.o(.constdata) refers to lv_btnmatrix.o(.text) for lv_btnmatrix_constructor
    lv_btnmatrix.o(.data) refers to lv_btnmatrix.o(.conststring) for .conststring
    lv_canvas.o(.text) refers to lv_obj_class.o(.text) for lv_obj_class_create_obj
    lv_canvas.o(.text) refers to lv_img.o(.text) for lv_img_set_src
    lv_canvas.o(.text) refers to lv_img_cache.o(.text) for lv_img_cache_invalidate_src
    lv_canvas.o(.text) refers to lv_img_buf.o(.text) for lv_img_buf_set_px_color
    lv_canvas.o(.text) refers to lv_obj_pos.o(.text) for lv_obj_invalidate
    lv_canvas.o(.text) refers to lv_draw_img.o(.text) for lv_img_cf_get_px_size
    lv_canvas.o(.text) refers to lv_mem.o(.text) for lv_memcpy
    lv_canvas.o(.text) refers to lv_draw_sw_transform.o(.text) for lv_draw_sw_transform
    lv_canvas.o(.text) refers to lv_canvas.o(.constdata) for .constdata
    lv_canvas.o(.text) refers to lv_hal_disp.o(.text) for lv_disp_drv_init
    lv_canvas.o(.text) refers to lv_draw_sw.o(.text) for lv_draw_sw_init_ctx
    lv_canvas.o(.text) refers to lv_refr.o(.text) for _lv_refr_get_disp_refreshing
    lv_canvas.o(.text) refers to lv_draw_rect.o(.text) for lv_draw_rect
    lv_canvas.o(.text) refers to lv_draw_label.o(.text) for lv_draw_label
    lv_canvas.o(.text) refers to lv_img_decoder.o(.text) for lv_img_decoder_get_info
    lv_canvas.o(.text) refers to lv_draw_line.o(.text) for lv_draw_line
    lv_canvas.o(.text) refers to lv_draw_triangle.o(.text) for lv_draw_polygon
    lv_canvas.o(.text) refers to lv_draw_arc.o(.text) for lv_draw_arc
    lv_canvas.o(.text) refers to lv_obj_style.o(.text) for lv_obj_get_style_prop
    lv_canvas.o(.constdata) refers to lv_img.o(.constdata) for lv_img_class
    lv_canvas.o(.constdata) refers to lv_canvas.o(.text) for lv_canvas_constructor
    lv_checkbox.o(.text) refers to lv_obj_class.o(.text) for lv_obj_class_create_obj
    lv_checkbox.o(.text) refers to strlen.o(.text) for strlen
    lv_checkbox.o(.text) refers to lv_mem.o(.text) for lv_mem_alloc
    lv_checkbox.o(.text) refers to strcpy.o(.text) for strcpy
    lv_checkbox.o(.text) refers to lv_obj_pos.o(.text) for lv_obj_refresh_self_size
    lv_checkbox.o(.text) refers to lv_obj.o(.text) for lv_obj_add_flag
    lv_checkbox.o(.text) refers to lv_event.o(.text) for lv_event_get_target
    lv_checkbox.o(.text) refers to lv_obj_style.o(.text) for lv_obj_get_style_prop
    lv_checkbox.o(.text) refers to lv_draw_rect.o(.text) for lv_draw_rect_dsc_init
    lv_checkbox.o(.text) refers to lv_obj_draw.o(.text) for lv_obj_init_draw_rect_dsc
    lv_checkbox.o(.text) refers to lv_txt.o(.text) for lv_txt_get_size
    lv_checkbox.o(.text) refers to lv_draw_label.o(.text) for lv_draw_label_dsc_init
    lv_checkbox.o(.text) refers to lv_checkbox.o(.constdata) for .constdata
    lv_checkbox.o(.constdata) refers to lv_obj.o(.constdata) for lv_obj_class
    lv_checkbox.o(.constdata) refers to lv_checkbox.o(.text) for lv_checkbox_constructor
    lv_dropdown.o(.text) refers to lv_obj_class.o(.text) for lv_obj_class_create_obj
    lv_dropdown.o(.text) refers to lv_obj_pos.o(.text) for lv_obj_invalidate
    lv_dropdown.o(.text) refers to strlen.o(.text) for strlen
    lv_dropdown.o(.text) refers to lv_mem.o(.text) for lv_mem_free
    lv_dropdown.o(.text) refers to strcpy.o(.text) for strcpy
    lv_dropdown.o(.text) refers to lv_txt.o(.text) for _lv_txt_ins
    lv_dropdown.o(.text) refers to strcat.o(.text) for strcat
    lv_dropdown.o(.text) refers to lv_obj_scroll.o(.text) for lv_obj_scroll_to_y
    lv_dropdown.o(.text) refers to memcmp.o(.text) for memcmp
    lv_dropdown.o(.text) refers to lv_obj.o(.text) for lv_obj_add_state
    lv_dropdown.o(.text) refers to lv_obj_tree.o(.text) for lv_obj_get_screen
    lv_dropdown.o(.text) refers to lv_dropdown.o(.constdata) for .constdata
    lv_dropdown.o(.text) refers to lv_txt.o(.data) for _lv_txt_encoded_get_char_id
    lv_dropdown.o(.text) refers to lv_event.o(.text) for lv_event_send
    lv_dropdown.o(.text) refers to lv_label.o(.text) for lv_label_set_text_static
    lv_dropdown.o(.text) refers to lv_obj_style.o(.text) for lv_obj_get_style_prop
    lv_dropdown.o(.text) refers to lv_hal_disp.o(.text) for lv_disp_get_default
    lv_dropdown.o(.text) refers to lv_draw_label.o(.text) for lv_draw_label_dsc_init
    lv_dropdown.o(.text) refers to lv_obj_draw.o(.text) for lv_obj_init_draw_label_dsc
    lv_dropdown.o(.text) refers to lv_draw_img.o(.text) for lv_img_src_get_type
    lv_dropdown.o(.text) refers to lv_img_decoder.o(.text) for lv_img_decoder_get_info
    lv_dropdown.o(.text) refers to lv_indev.o(.text) for lv_indev_get_act
    lv_dropdown.o(.text) refers to lv_group.o(.text) for lv_group_set_editing
    lv_dropdown.o(.text) refers to lv_area.o(.text) for _lv_area_intersect
    lv_dropdown.o(.text) refers to lv_draw_rect.o(.text) for lv_draw_rect_dsc_init
    lv_dropdown.o(.constdata) refers to lv_obj.o(.constdata) for lv_obj_class
    lv_dropdown.o(.constdata) refers to lv_dropdown.o(.text) for lv_dropdown_constructor
    lv_img.o(.text) refers to lv_obj_class.o(.text) for lv_obj_class_create_obj
    lv_img.o(.text) refers to lv_obj_pos.o(.text) for lv_obj_invalidate
    lv_img.o(.text) refers to lv_draw_img.o(.text) for lv_img_src_get_type
    lv_img.o(.text) refers to lv_img_decoder.o(.text) for lv_img_decoder_get_info
    lv_img.o(.text) refers to lv_mem.o(.text) for lv_mem_free
    lv_img.o(.text) refers to strlen.o(.text) for strlen
    lv_img.o(.text) refers to strcpy.o(.text) for strcpy
    lv_img.o(.text) refers to lv_obj_style.o(.text) for lv_obj_get_style_prop
    lv_img.o(.text) refers to lv_txt.o(.text) for lv_txt_get_size
    lv_img.o(.text) refers to lv_obj_draw.o(.text) for lv_obj_refresh_ext_draw_size
    lv_img.o(.text) refers to lv_img_buf.o(.text) for _lv_img_buf_get_transformed_area
    lv_img.o(.text) refers to lv_obj_tree.o(.text) for lv_obj_get_disp
    lv_img.o(.text) refers to lv_disp.o(.text) for lv_disp_enable_invalidation
    lv_img.o(.text) refers to lv_img.o(.constdata) for .constdata
    lv_img.o(.text) refers to lv_obj.o(.text) for lv_obj_clear_flag
    lv_img.o(.text) refers to lv_event.o(.text) for lv_event_get_code
    lv_img.o(.text) refers to lv_area.o(.text) for _lv_area_is_in
    lv_img.o(.text) refers to lv_draw_label.o(.text) for lv_draw_label_dsc_init
    lv_img.o(.constdata) refers to lv_obj.o(.constdata) for lv_obj_class
    lv_img.o(.constdata) refers to lv_img.o(.text) for lv_img_constructor
    lv_label.o(.text) refers to lv_obj_class.o(.text) for lv_obj_class_create_obj
    lv_label.o(.text) refers to lv_obj_style.o(.text) for lv_obj_get_style_prop
    lv_label.o(.text) refers to lv_obj_pos.o(.text) for lv_obj_get_content_coords
    lv_label.o(.text) refers to lv_txt.o(.text) for _lv_txt_get_next_line
    lv_label.o(.text) refers to lv_font.o(.text) for lv_font_get_glyph_width
    lv_label.o(.text) refers to lv_obj_tree.o(.text) for lv_obj_get_disp
    lv_label.o(.text) refers to lv_hal_disp.o(.text) for lv_disp_get_dpi
    lv_label.o(.text) refers to lv_anim.o(.text) for lv_anim_init
    lv_label.o(.text) refers to lv_label.o(.constdata) for .constdata
    lv_label.o(.text) refers to lv_txt.o(.data) for _lv_txt_encoded_prev
    lv_label.o(.text) refers to lv_txt.o(.data) for _lv_txt_encoded_get_char_id
    lv_label.o(.text) refers to strlen.o(.text) for strlen
    lv_label.o(.text) refers to lv_mem.o(.text) for lv_mem_alloc
    lv_label.o(.text) refers to strcpy.o(.text) for strcpy
    lv_label.o(.text) refers to lv_txt.o(.data) for _lv_txt_get_encoded_length
    lv_label.o(.text) refers to lv_txt.o(.data) for _lv_txt_encoded_get_byte_id
    lv_label.o(.text) refers to lv_obj.o(.text) for lv_obj_clear_flag
    lv_label.o(.text) refers to lv_event.o(.text) for lv_event_get_target
    lv_label.o(.text) refers to lv_draw_label.o(.text) for lv_draw_label_dsc_init
    lv_label.o(.text) refers to lv_obj_draw.o(.text) for lv_obj_init_draw_label_dsc
    lv_label.o(.text) refers to lv_area.o(.text) for _lv_area_intersect
    lv_label.o(.text) refers to lv_obj_scroll.o(.text) for lv_obj_get_scroll_top
    lv_label.o(.constdata) refers to lv_obj.o(.constdata) for lv_obj_class
    lv_label.o(.constdata) refers to lv_label.o(.text) for lv_label_constructor
    lv_line.o(.text) refers to lv_obj_class.o(.text) for lv_obj_class_create_obj
    lv_line.o(.text) refers to lv_obj_pos.o(.text) for lv_obj_refresh_self_size
    lv_line.o(.text) refers to lv_obj.o(.text) for lv_obj_clear_flag
    lv_line.o(.text) refers to lv_event.o(.text) for lv_obj_event_base
    lv_line.o(.text) refers to lv_obj_scroll.o(.text) for lv_obj_get_scroll_x
    lv_line.o(.text) refers to lv_draw_line.o(.text) for lv_draw_line_dsc_init
    lv_line.o(.text) refers to lv_obj_draw.o(.text) for lv_obj_init_draw_line_dsc
    lv_line.o(.text) refers to lv_obj_style.o(.text) for lv_obj_get_style_prop
    lv_line.o(.text) refers to lv_line.o(.constdata) for .constdata
    lv_line.o(.constdata) refers to lv_obj.o(.constdata) for lv_obj_class
    lv_line.o(.constdata) refers to lv_line.o(.text) for lv_line_constructor
    lv_roller.o(.text) refers to lv_obj_class.o(.text) for lv_obj_class_create_obj
    lv_roller.o(.text) refers to lv_obj_pos.o(.text) for lv_obj_get_content_height
    lv_roller.o(.text) refers to strlen.o(.text) for strlen
    lv_roller.o(.text) refers to lv_mem.o(.text) for lv_mem_buf_get
    lv_roller.o(.text) refers to strcpy.o(.text) for strcpy
    lv_roller.o(.text) refers to lv_label.o(.text) for lv_label_set_text
    lv_roller.o(.text) refers to lv_obj_draw.o(.text) for lv_obj_refresh_ext_draw_size
    lv_roller.o(.text) refers to lv_obj_tree.o(.text) for lv_obj_get_parent
    lv_roller.o(.text) refers to lv_obj_style.o(.text) for lv_obj_calculate_style_text_align
    lv_roller.o(.text) refers to lv_anim.o(.text) for lv_anim_init
    lv_roller.o(.text) refers to lv_obj.o(.text) for lv_obj_clear_flag
    lv_roller.o(.text) refers to lv_roller.o(.constdata) for .constdata
    lv_roller.o(.text) refers to lv_event.o(.text) for lv_event_get_code
    lv_roller.o(.text) refers to lv_draw_label.o(.text) for lv_draw_label_dsc_init
    lv_roller.o(.text) refers to lv_area.o(.text) for _lv_area_intersect
    lv_roller.o(.text) refers to lv_txt.o(.text) for lv_txt_get_size
    lv_roller.o(.text) refers to lv_draw_rect.o(.text) for lv_draw_rect_dsc_init
    lv_roller.o(.text) refers to lv_indev.o(.text) for lv_indev_get_act
    lv_roller.o(.text) refers to lv_group.o(.text) for lv_group_get_editing
    lv_roller.o(.text) refers to lv_indev_scroll.o(.text) for lv_indev_scroll_throw_predict
    lv_roller.o(.text) refers to lv_txt.o(.data) for _lv_txt_encoded_next
    lv_roller.o(.constdata) refers to lv_obj.o(.constdata) for lv_obj_class
    lv_roller.o(.constdata) refers to lv_roller.o(.text) for lv_roller_constructor
    lv_roller.o(.constdata) refers to lv_label.o(.constdata) for lv_label_class
    lv_slider.o(.text) refers to lv_obj_class.o(.text) for lv_obj_class_create_obj
    lv_slider.o(.text) refers to lv_obj.o(.text) for lv_obj_clear_flag
    lv_slider.o(.text) refers to lv_hal_disp.o(.text) for lv_disp_get_dpi
    lv_slider.o(.text) refers to lv_obj_pos.o(.text) for lv_obj_set_ext_click_area
    lv_slider.o(.text) refers to lv_event.o(.text) for lv_event_get_target
    lv_slider.o(.text) refers to lv_draw_rect.o(.text) for lv_draw_rect_dsc_init
    lv_slider.o(.text) refers to lv_obj_draw.o(.text) for lv_obj_init_draw_rect_dsc
    lv_slider.o(.text) refers to lv_mem.o(.text) for lv_memcpy
    lv_slider.o(.text) refers to lv_area.o(.text) for lv_area_increase
    lv_slider.o(.text) refers to lv_indev.o(.text) for lv_indev_get_act
    lv_slider.o(.text) refers to lv_slider.o(.constdata) for .constdata
    lv_slider.o(.text) refers to lv_bar.o(.text) for lv_bar_set_start_value
    lv_slider.o(.text) refers to lv_group.o(.text) for lv_group_get_editing
    lv_slider.o(.text) refers to lv_obj_style.o(.text) for lv_obj_get_style_prop
    lv_slider.o(.constdata) refers to lv_bar.o(.constdata) for lv_bar_class
    lv_slider.o(.constdata) refers to lv_slider.o(.text) for lv_slider_constructor
    lv_switch.o(.text) refers to lv_obj_class.o(.text) for lv_obj_class_create_obj
    lv_switch.o(.text) refers to lv_obj.o(.text) for lv_obj_clear_flag
    lv_switch.o(.text) refers to lv_anim.o(.text) for lv_anim_del
    lv_switch.o(.text) refers to lv_event.o(.text) for lv_event_get_target
    lv_switch.o(.text) refers to lv_draw_rect.o(.text) for lv_draw_rect_dsc_init
    lv_switch.o(.text) refers to lv_obj_draw.o(.text) for lv_obj_init_draw_rect_dsc
    lv_switch.o(.text) refers to lv_obj_pos.o(.text) for lv_obj_get_height
    lv_switch.o(.text) refers to lv_obj_style.o(.text) for lv_obj_get_style_prop
    lv_switch.o(.text) refers to lv_switch.o(.constdata) for .constdata
    lv_switch.o(.constdata) refers to lv_obj.o(.constdata) for lv_obj_class
    lv_switch.o(.constdata) refers to lv_switch.o(.text) for lv_switch_constructor
    lv_table.o(.text) refers to lv_obj_class.o(.text) for lv_obj_class_create_obj
    lv_table.o(.text) refers to lv_obj_scroll.o(.text) for lv_obj_get_scroll_x
    lv_table.o(.text) refers to lv_obj_pos.o(.text) for lv_obj_get_width
    lv_table.o(.text) refers to lv_txt.o(.text) for lv_txt_get_size
    lv_table.o(.text) refers to lv_area.o(.text) for lv_area_move
    lv_table.o(.text) refers to lv_mem.o(.text) for lv_mem_realloc
    lv_table.o(.text) refers to lv_table.o(.constdata) for .constdata
    lv_table.o(.text) refers to strlen.o(.text) for strlen
    lv_table.o(.text) refers to strcpy.o(.text) for strcpy
    lv_table.o(.text) refers to lv_printf.o(.text) for lv_vsnprintf
    lv_table.o(.text) refers to lv_event.o(.text) for lv_event_get_target
    lv_table.o(.text) refers to lv_obj_style.o(.text) for lv_obj_get_style_prop
    lv_table.o(.text) refers to lv_draw_rect.o(.text) for lv_draw_rect_dsc_init
    lv_table.o(.text) refers to lv_obj_draw.o(.text) for lv_obj_init_draw_rect_dsc
    lv_table.o(.text) refers to lv_draw_label.o(.text) for lv_draw_label_dsc_init
    lv_table.o(.text) refers to lv_indev.o(.text) for lv_indev_get_act
    lv_table.o(.constdata) refers to lv_obj.o(.constdata) for lv_obj_class
    lv_table.o(.constdata) refers to lv_table.o(.text) for lv_table_constructor
    lv_textarea.o(.text) refers to lv_obj_class.o(.text) for lv_obj_class_create_obj
    lv_textarea.o(.text) refers to lv_label.o(.text) for lv_label_get_text
    lv_textarea.o(.text) refers to lv_font.o(.text) for lv_font_get_glyph_width
    lv_textarea.o(.text) refers to lv_obj_style.o(.text) for lv_obj_calculate_style_text_align
    lv_textarea.o(.text) refers to lv_obj_pos.o(.text) for lv_obj_invalidate_area
    lv_textarea.o(.text) refers to lv_anim.o(.text) for lv_anim_init
    lv_textarea.o(.text) refers to lv_obj_scroll.o(.text) for lv_obj_get_scroll_top
    lv_textarea.o(.text) refers to lv_textarea.o(.constdata) for .constdata
    lv_textarea.o(.text) refers to lv_txt.o(.data) for _lv_txt_encoded_get_byte_id
    lv_textarea.o(.text) refers to lv_txt.o(.data) for _lv_txt_get_encoded_length
    lv_textarea.o(.text) refers to strlen.o(.text) for strlen
    lv_textarea.o(.text) refers to lv_mem.o(.text) for lv_mem_buf_get
    lv_textarea.o(.text) refers to lv_txt.o(.text) for _lv_txt_ins
    lv_textarea.o(.text) refers to lv_event.o(.text) for lv_event_send
    lv_textarea.o(.text) refers to strcmp.o(.text) for strcmp
    lv_textarea.o(.text) refers to strcpy.o(.text) for strcpy
    lv_textarea.o(.text) refers to lv_txt.o(.data) for _lv_txt_unicode_to_encoded
    lv_textarea.o(.text) refers to lv_textarea.o(.data) for .data
    lv_textarea.o(.text) refers to lv_obj_style_gen.o(.text) for lv_obj_set_style_min_width
    lv_textarea.o(.text) refers to lv_obj_tree.o(.text) for lv_obj_get_parent
    lv_textarea.o(.text) refers to lv_obj.o(.text) for lv_obj_add_flag
    lv_textarea.o(.text) refers to lv_draw_rect.o(.text) for lv_draw_rect_dsc_init
    lv_textarea.o(.text) refers to lv_obj_draw.o(.text) for lv_obj_init_draw_rect_dsc
    lv_textarea.o(.text) refers to lv_draw_label.o(.text) for lv_draw_label_dsc_init
    lv_textarea.o(.text) refers to lv_indev.o(.text) for lv_indev_get_act
    lv_textarea.o(.text) refers to lv_area.o(.text) for lv_area_move
    lv_textarea.o(.constdata) refers to lv_obj.o(.constdata) for lv_obj_class
    lv_textarea.o(.constdata) refers to lv_textarea.o(.text) for lv_textarea_constructor
    lv_port_disp.o(.text) refers to lcd_screen.o(.text) for LCD_Color_Fill
    lv_port_disp.o(.text) refers to lv_hal_disp.o(.text) for lv_disp_flush_ready
    lv_port_disp.o(.text) refers to lv_port_disp.o(.data) for .data
    lv_port_disp.o(.text) refers to lcd_screen.o(.bss) for lcddev
    lv_port_disp.o(.text) refers to lv_port_disp.o(.bss) for .bss
    lv_port_indev.o(.text) refers to lcd_touch.o(.text) for TP_Scan
    lv_port_indev.o(.text) refers to lv_hal_indev.o(.text) for lv_indev_drv_init
    lv_port_indev.o(.text) refers to lv_port_indev.o(.data) for .data
    lv_port_indev.o(.text) refers to lcd_touch.o(.data) for tp_dev
    lv_port_indev.o(.text) refers to lv_port_indev.o(.bss) for .bss
    lv_demo_benchmark.o(.text) refers to lv_obj_pos.o(.text) for lv_obj_set_y
    lv_demo_benchmark.o(.text) refers to lv_anim.o(.text) for lv_anim_init
    lv_demo_benchmark.o(.text) refers to lv_obj.o(.text) for lv_obj_create
    lv_demo_benchmark.o(.text) refers to lv_obj_style.o(.text) for lv_obj_add_style
    lv_demo_benchmark.o(.text) refers to lv_obj_style_gen.o(.text) for lv_obj_set_style_bg_color
    lv_demo_benchmark.o(.text) refers to lv_hal_disp.o(.text) for lv_disp_get_default
    lv_demo_benchmark.o(.text) refers to lv_style.o(.text) for lv_style_reset
    lv_demo_benchmark.o(.text) refers to lv_style_gen.o(.text) for lv_style_set_bg_opa
    lv_demo_benchmark.o(.text) refers to lv_demo_benchmark.o(.constdata) for .constdata
    lv_demo_benchmark.o(.text) refers to lv_demo_benchmark.o(.data) for .data
    lv_demo_benchmark.o(.text) refers to lv_img.o(.text) for lv_img_create
    lv_demo_benchmark.o(.text) refers to img_benchmark_cogwheel_rgb.o(.constdata) for img_benchmark_cogwheel_rgb
    lv_demo_benchmark.o(.text) refers to img_benchmark_cogwheel_argb.o(.constdata) for img_benchmark_cogwheel_argb
    lv_demo_benchmark.o(.text) refers to img_benchmark_cogwheel_chroma_keyed.o(.constdata) for img_benchmark_cogwheel_chroma_keyed
    lv_demo_benchmark.o(.text) refers to img_benchmark_cogwheel_indexed16.o(.constdata) for img_benchmark_cogwheel_indexed16
    lv_demo_benchmark.o(.text) refers to img_benchmark_cogwheel_alpha16.o(.constdata) for img_benchmark_cogwheel_alpha16
    lv_demo_benchmark.o(.text) refers to lv_label.o(.text) for lv_label_create
    lv_demo_benchmark.o(.text) refers to lv_theme.o(.text) for lv_theme_get_font_small
    lv_demo_benchmark.o(.text) refers to lv_line.o(.text) for lv_line_create
    lv_demo_benchmark.o(.text) refers to lv_arc.o(.text) for lv_arc_set_end_angle
    lv_demo_benchmark.o(.text) refers to lv_demo_benchmark.o(.conststring) for .conststring
    lv_demo_benchmark.o(.text) refers to lv_font_bechmark_montserrat_12_compr_az.c.o(.data) for lv_font_benchmark_montserrat_12_compr_az
    lv_demo_benchmark.o(.text) refers to lv_font_bechmark_montserrat_16_compr_az.c.o(.data) for lv_font_benchmark_montserrat_16_compr_az
    lv_demo_benchmark.o(.text) refers to lv_font_bechmark_montserrat_28_compr_az.c.o(.data) for lv_font_benchmark_montserrat_28_compr_az
    lv_demo_benchmark.o(.text) refers to lv_demo_benchmark.o(.bss) for .bss
    lv_demo_benchmark.o(.text) refers to lv_timer.o(.text) for lv_timer_set_period
    lv_demo_benchmark.o(.text) refers to lv_obj_tree.o(.text) for lv_obj_clean
    lv_demo_benchmark.o(.text) refers to lv_flex.o(.text) for lv_obj_set_flex_flow
    lv_demo_benchmark.o(.text) refers to lv_table.o(.text) for lv_table_create
    lv_demo_benchmark.o(.text) refers to lv_printf.o(.text) for lv_snprintf
    lv_demo_benchmark.o(.text) refers to lv_disp.o(.text) for _lv_disp_get_refr_timer
    lv_demo_benchmark.o(.data) refers to lv_demo_benchmark.o(.conststring) for .conststring
    lv_demo_benchmark.o(.data) refers to lv_demo_benchmark.o(.text) for rectangle_cb
    img_benchmark_cogwheel_alpha16.o(.constdata) refers to img_benchmark_cogwheel_alpha16.o(.constdata) for img_benchmark_cogwheel_alpha16_map
    img_benchmark_cogwheel_argb.o(.constdata) refers to img_benchmark_cogwheel_argb.o(.constdata) for img_benchmark_cogwheel_argb_map
    img_benchmark_cogwheel_chroma_keyed.o(.constdata) refers to img_benchmark_cogwheel_chroma_keyed.o(.constdata) for img_benchmark_cogwheel_chroma_keyed_map
    img_benchmark_cogwheel_indexed16.o(.constdata) refers to img_benchmark_cogwheel_indexed16.o(.constdata) for img_benchmark_cogwheel_indexed16_map
    img_benchmark_cogwheel_rgb.o(.constdata) refers to img_benchmark_cogwheel_rgb.o(.constdata) for img_benchmark_cogwheel_rgb_map
    img_benchmark_cogwheel_rgb565a8.o(.constdata) refers to img_benchmark_cogwheel_rgb565a8.o(.constdata) for img_benchmark_cogwheel_rgb565a8_map
    lv_font_bechmark_montserrat_12_compr_az.c.o(.constdata) refers to lv_font_bechmark_montserrat_12_compr_az.c.o(.constdata) for kern_class_values
    lv_font_bechmark_montserrat_12_compr_az.c.o(.constdata) refers to lv_font_bechmark_montserrat_12_compr_az.c.o(.constdata) for kern_left_class_mapping
    lv_font_bechmark_montserrat_12_compr_az.c.o(.constdata) refers to lv_font_bechmark_montserrat_12_compr_az.c.o(.constdata) for kern_right_class_mapping
    lv_font_bechmark_montserrat_12_compr_az.c.o(.data) refers to lv_font_bechmark_montserrat_12_compr_az.c.o(.constdata) for gylph_bitmap
    lv_font_bechmark_montserrat_12_compr_az.c.o(.data) refers to lv_font_bechmark_montserrat_12_compr_az.c.o(.constdata) for glyph_dsc
    lv_font_bechmark_montserrat_12_compr_az.c.o(.data) refers to lv_font_bechmark_montserrat_12_compr_az.c.o(.constdata) for cmaps
    lv_font_bechmark_montserrat_12_compr_az.c.o(.data) refers to lv_font_bechmark_montserrat_12_compr_az.c.o(.constdata) for kern_classes
    lv_font_bechmark_montserrat_12_compr_az.c.o(.data) refers to lv_font_fmt_txt.o(.text) for lv_font_get_glyph_dsc_fmt_txt
    lv_font_bechmark_montserrat_12_compr_az.c.o(.data) refers to lv_font_bechmark_montserrat_12_compr_az.c.o(.data) for font_dsc
    lv_font_bechmark_montserrat_16_compr_az.c.o(.constdata) refers to lv_font_bechmark_montserrat_16_compr_az.c.o(.constdata) for kern_class_values
    lv_font_bechmark_montserrat_16_compr_az.c.o(.constdata) refers to lv_font_bechmark_montserrat_16_compr_az.c.o(.constdata) for kern_left_class_mapping
    lv_font_bechmark_montserrat_16_compr_az.c.o(.constdata) refers to lv_font_bechmark_montserrat_16_compr_az.c.o(.constdata) for kern_right_class_mapping
    lv_font_bechmark_montserrat_16_compr_az.c.o(.data) refers to lv_font_bechmark_montserrat_16_compr_az.c.o(.constdata) for gylph_bitmap
    lv_font_bechmark_montserrat_16_compr_az.c.o(.data) refers to lv_font_bechmark_montserrat_16_compr_az.c.o(.constdata) for glyph_dsc
    lv_font_bechmark_montserrat_16_compr_az.c.o(.data) refers to lv_font_bechmark_montserrat_16_compr_az.c.o(.constdata) for cmaps
    lv_font_bechmark_montserrat_16_compr_az.c.o(.data) refers to lv_font_bechmark_montserrat_16_compr_az.c.o(.constdata) for kern_classes
    lv_font_bechmark_montserrat_16_compr_az.c.o(.data) refers to lv_font_fmt_txt.o(.text) for lv_font_get_glyph_dsc_fmt_txt
    lv_font_bechmark_montserrat_16_compr_az.c.o(.data) refers to lv_font_bechmark_montserrat_16_compr_az.c.o(.data) for font_dsc
    lv_font_bechmark_montserrat_28_compr_az.c.o(.constdata) refers to lv_font_bechmark_montserrat_28_compr_az.c.o(.constdata) for kern_class_values
    lv_font_bechmark_montserrat_28_compr_az.c.o(.constdata) refers to lv_font_bechmark_montserrat_28_compr_az.c.o(.constdata) for kern_left_class_mapping
    lv_font_bechmark_montserrat_28_compr_az.c.o(.constdata) refers to lv_font_bechmark_montserrat_28_compr_az.c.o(.constdata) for kern_right_class_mapping
    lv_font_bechmark_montserrat_28_compr_az.c.o(.data) refers to lv_font_bechmark_montserrat_28_compr_az.c.o(.constdata) for gylph_bitmap
    lv_font_bechmark_montserrat_28_compr_az.c.o(.data) refers to lv_font_bechmark_montserrat_28_compr_az.c.o(.constdata) for glyph_dsc
    lv_font_bechmark_montserrat_28_compr_az.c.o(.data) refers to lv_font_bechmark_montserrat_28_compr_az.c.o(.constdata) for cmaps
    lv_font_bechmark_montserrat_28_compr_az.c.o(.data) refers to lv_font_bechmark_montserrat_28_compr_az.c.o(.constdata) for kern_classes
    lv_font_bechmark_montserrat_28_compr_az.c.o(.data) refers to lv_font_fmt_txt.o(.text) for lv_font_get_glyph_dsc_fmt_txt
    lv_font_bechmark_montserrat_28_compr_az.c.o(.data) refers to lv_font_bechmark_montserrat_28_compr_az.c.o(.data) for font_dsc
    lv_demo_widgets.o(.text) refers to lv_obj_tree.o(.text) for lv_obj_get_parent
    lv_demo_widgets.o(.text) refers to lv_obj_pos.o(.text) for lv_obj_get_width
    lv_demo_widgets.o(.text) refers to lv_hal_disp.o(.text) for lv_disp_get_dpi
    lv_demo_widgets.o(.text) refers to lv_math.o(.text) for lv_map
    lv_demo_widgets.o(.text) refers to lv_obj_style_gen.o(.text) for lv_obj_set_style_opa
    lv_demo_widgets.o(.text) refers to lv_event.o(.text) for lv_event_get_code
    lv_demo_widgets.o(.text) refers to lv_anim.o(.text) for lv_anim_init
    lv_demo_widgets.o(.text) refers to lv_color.o(.text) for lv_palette_main
    lv_demo_widgets.o(.text) refers to lv_theme_default.o(.text) for lv_theme_default_init
    lv_demo_widgets.o(.text) refers to lv_style_gen.o(.text) for lv_style_set_text_color
    lv_demo_widgets.o(.text) refers to lv_chart.o(.text) for lv_chart_set_series_color
    lv_demo_widgets.o(.text) refers to lv_obj.o(.text) for lv_obj_create
    lv_demo_widgets.o(.text) refers to lv_obj_style.o(.text) for lv_obj_remove_style
    lv_demo_widgets.o(.text) refers to lv_flex.o(.text) for lv_obj_set_flex_flow
    lv_demo_widgets.o(.text) refers to lv_demo_widgets.o(.data) for .data
    lv_demo_widgets.o(.text) refers to lv_btn.o(.text) for lv_btn_create
    lv_demo_widgets.o(.text) refers to lv_grid.o(.text) for lv_obj_set_grid_dsc_array
    lv_demo_widgets.o(.text) refers to lv_img.o(.text) for lv_img_create
    lv_demo_widgets.o(.text) refers to lv_label.o(.text) for lv_label_create
    lv_demo_widgets.o(.text) refers to lv_draw_rect.o(.text) for lv_draw_rect_dsc_init
    lv_demo_widgets.o(.text) refers to memmovea.o(.text) for __aeabi_memcpy4
    lv_demo_widgets.o(.text) refers to lv_printf.o(.text) for lv_snprintf
    lv_demo_widgets.o(.text) refers to lv_demo_widgets.o(.constdata) for .constdata
    lv_demo_widgets.o(.text) refers to lv_theme.o(.text) for lv_theme_get_color_primary
    lv_demo_widgets.o(.text) refers to lv_checkbox.o(.text) for lv_checkbox_create
    lv_demo_widgets.o(.text) refers to lv_meter.o(.text) for lv_meter_set_indicator_value
    lv_demo_widgets.o(.text) refers to img_clothes.o(.constdata) for img_clothes
    lv_demo_widgets.o(.text) refers to lv_draw_mask.o(.text) for lv_draw_mask_line_points_init
    lv_demo_widgets.o(.text) refers to lv_area.o(.text) for _lv_area_intersect
    lv_demo_widgets.o(.text) refers to lv_txt.o(.text) for lv_txt_get_size
    lv_demo_widgets.o(.text) refers to lv_draw_label.o(.text) for lv_draw_label_dsc_init
    lv_demo_widgets.o(.text) refers to lv_group.o(.text) for lv_group_get_default
    lv_demo_widgets.o(.text) refers to lv_timer.o(.text) for lv_timer_create
    lv_demo_widgets.o(.text) refers to lv_demo_widgets.o(.bss) for .bss
    lv_demo_widgets.o(.text) refers to lv_bar.o(.text) for lv_bar_get_value
    lv_demo_widgets.o(.text) refers to lv_calendar.o(.text) for lv_calendar_get_pressed_date
    lv_demo_widgets.o(.text) refers to lv_textarea.o(.text) for lv_textarea_set_text
    lv_demo_widgets.o(.text) refers to lv_indev.o(.text) for lv_indev_get_act
    lv_demo_widgets.o(.text) refers to lv_calendar_header_dropdown.o(.text) for lv_calendar_header_dropdown_create
    lv_demo_widgets.o(.text) refers to lv_keyboard.o(.text) for lv_keyboard_set_textarea
    lv_demo_widgets.o(.text) refers to lv_obj_scroll.o(.text) for lv_obj_scroll_to_view_recursive
    lv_demo_widgets.o(.text) refers to lv_dropdown.o(.text) for lv_dropdown_create
    lv_demo_widgets.o(.text) refers to lv_slider.o(.text) for lv_slider_create
    lv_demo_widgets.o(.text) refers to lv_obj_draw.o(.text) for lv_obj_refresh_ext_draw_size
    lv_demo_widgets.o(.text) refers to lv_switch.o(.text) for lv_switch_create
    lv_demo_widgets.o(.text) refers to img_demo_widgets_avatar.o(.constdata) for img_demo_widgets_avatar
    lv_demo_widgets.o(.text) refers to lv_style.o(.text) for lv_style_init
    lv_demo_widgets.o(.text) refers to lv_tabview.o(.text) for lv_tabview_create
    lv_demo_widgets.o(.text) refers to lv_disp.o(.text) for lv_disp_get_scr_act
    lv_demo_widgets.o(.text) refers to lv_font_montserrat_14.o(.constdata) for lv_font_montserrat_14
    lv_demo_widgets.o(.text) refers to img_lvgl_logo.o(.constdata) for img_lvgl_logo
    lv_demo_widgets.o(.constdata) refers to lv_demo_widgets.o(.conststring) for .conststring
    img_clothes.o(.constdata) refers to img_clothes.o(.constdata) for img_clothes_map
    img_demo_widgets_avatar.o(.constdata) refers to img_demo_widgets_avatar.o(.constdata) for img_demo_widgets_avatar_map
    img_lvgl_logo.o(.constdata) refers to img_lvgl_logo.o(.constdata) for img_lvgl_logo_map
    event_groups.o(.text) refers to heap_4.o(.text) for pvPortMalloc
    event_groups.o(.text) refers to list.o(.text) for vListInitialise
    event_groups.o(.text) refers to tasks.o(.text) for vTaskSuspendAll
    event_groups.o(.text) refers to port.o(.text) for vPortEnterCritical
    queue.o(.text) refers to port.o(.text) for vPortEnterCritical
    queue.o(.text) refers to list.o(.text) for vListInitialise
    queue.o(.text) refers to tasks.o(.text) for xTaskRemoveFromEventList
    queue.o(.text) refers to heap_4.o(.text) for pvPortMalloc
    queue.o(.text) refers to memmovea.o(.text) for __aeabi_memcpy
    queue.o(.text) refers to queue.o(.bss) for .bss
    stream_buffer.o(.text) refers to memseta.o(.text) for memset
    stream_buffer.o(.text) refers to heap_4.o(.text) for pvPortMalloc
    stream_buffer.o(.text) refers to port.o(.text) for vPortEnterCritical
    stream_buffer.o(.text) refers to memmovea.o(.text) for __aeabi_memcpy
    stream_buffer.o(.text) refers to tasks.o(.text) for vTaskSetTimeOutState
    tasks.o(.text) refers to port.o(.text) for vPortEnterCritical
    tasks.o(.text) refers to list.o(.text) for vListInitialise
    tasks.o(.text) refers to heap_4.o(.text) for pvPortMalloc
    tasks.o(.text) refers to main.o(.text) for vApplicationTickHook
    tasks.o(.text) refers to tasks.o(.data) for .data
    tasks.o(.text) refers to tasks.o(.bss) for .bss
    tasks.o(.text) refers to timers.o(.text) for xTimerCreateTimerTask
    tasks.o(.text) refers to memseta.o(.text) for __aeabi_memset
    timers.o(.text) refers to list.o(.text) for vListInsert
    timers.o(.text) refers to tasks.o(.text) for xTaskGetSchedulerState
    timers.o(.text) refers to queue.o(.text) for xQueueGenericSend
    timers.o(.text) refers to heap_4.o(.text) for vPortFree
    timers.o(.text) refers to port.o(.text) for vPortEnterCritical
    timers.o(.text) refers to timers.o(.data) for .data
    timers.o(.text) refers to timers.o(.bss) for .bss
    heap_4.o(.text) refers to tasks.o(.text) for vTaskSuspendAll
    heap_4.o(.text) refers to heap_4.o(.data) for .data
    heap_4.o(.text) refers to heap_4.o(.bss) for .bss
    port.o(.emb_text) refers to tasks.o(.text) for vTaskSwitchContext
    port.o(.emb_text) refers to tasks.o(.data) for pxCurrentTCB
    port.o(.text) refers to port.o(.emb_text) for __asm___6_port_c_39a90d8d__prvEnableVFP
    port.o(.text) refers to tasks.o(.text) for xTaskIncrementTick
    port.o(.text) refers to port.o(.data) for .data
    port.o(.text) refers to system_stm32f4xx.o(.data) for SystemCoreClock
    rtc.o(.text) refers to stm32f4xx_rcc.o(.text) for RCC_APB1PeriphClockCmd
    rtc.o(.text) refers to stm32f4xx_pwr.o(.text) for PWR_BackupAccessCmd
    rtc.o(.text) refers to stm32f4xx_rtc.o(.text) for RTC_WaitForSynchro
    sqrt.o(i.__hardfp_sqrt) refers (Special) to iusefp.o(.text) for __I$use$fp
    sqrt.o(i.__hardfp_sqrt) refers to dsqrt.o(.text) for _dsqrt
    sqrt.o(i.__hardfp_sqrt) refers to errno.o(i.__set_errno) for __set_errno
    sqrt.o(i.__softfp_sqrt) refers (Special) to iusefp.o(.text) for __I$use$fp
    sqrt.o(i.__softfp_sqrt) refers to dsqrt.o(.text) for _dsqrt
    sqrt.o(i.__softfp_sqrt) refers to errno.o(i.__set_errno) for __set_errno
    sqrt.o(i.sqrt) refers (Special) to iusefp.o(.text) for __I$use$fp
    sqrt.o(i.sqrt) refers to dsqrt.o(.text) for _dsqrt
    sqrt.o(i.sqrt) refers to errno.o(i.__set_errno) for __set_errno
    sqrt_x.o(i.____hardfp_sqrt$lsc) refers (Special) to iusefp.o(.text) for __I$use$fp
    sqrt_x.o(i.____hardfp_sqrt$lsc) refers to cdcmple.o(.text) for __aeabi_cdcmple
    sqrt_x.o(i.____hardfp_sqrt$lsc) refers to errno.o(i.__set_errno) for __set_errno
    sqrt_x.o(i.____hardfp_sqrt$lsc) refers to dsqrt.o(.text) for _dsqrt
    sqrt_x.o(i.____softfp_sqrt$lsc) refers (Special) to iusefp.o(.text) for __I$use$fp
    sqrt_x.o(i.____softfp_sqrt$lsc) refers to cdcmple.o(.text) for __aeabi_cdcmple
    sqrt_x.o(i.____softfp_sqrt$lsc) refers to errno.o(i.__set_errno) for __set_errno
    sqrt_x.o(i.____softfp_sqrt$lsc) refers to dsqrt.o(.text) for _dsqrt
    sqrt_x.o(i.__sqrt$lsc) refers (Special) to iusefp.o(.text) for __I$use$fp
    sqrt_x.o(i.__sqrt$lsc) refers to cdcmple.o(.text) for __aeabi_cdcmple
    sqrt_x.o(i.__sqrt$lsc) refers to errno.o(i.__set_errno) for __set_errno
    sqrt_x.o(i.__sqrt$lsc) refers to dsqrt.o(.text) for _dsqrt
    entry.o(.ARM.Collect$$$$00000000) refers (Special) to entry10a.o(.ARM.Collect$$$$0000000F) for __rt_final_cpp
    entry.o(.ARM.Collect$$$$00000000) refers (Special) to entry11a.o(.ARM.Collect$$$$00000011) for __rt_final_exit
    entry.o(.ARM.Collect$$$$00000000) refers (Special) to entry12b.o(.ARM.Collect$$$$0000000E) for __rt_lib_shutdown_fini
    entry.o(.ARM.Collect$$$$00000000) refers (Special) to entry7b.o(.ARM.Collect$$$$00000008) for _main_clock
    entry.o(.ARM.Collect$$$$00000000) refers (Special) to entry8b.o(.ARM.Collect$$$$0000000A) for _main_cpp_init
    entry.o(.ARM.Collect$$$$00000000) refers (Special) to entry9a.o(.ARM.Collect$$$$0000000B) for _main_init
    entry.o(.ARM.Collect$$$$00000000) refers (Special) to entry5.o(.ARM.Collect$$$$00000004) for _main_scatterload
    entry.o(.ARM.Collect$$$$00000000) refers (Special) to entry2.o(.ARM.Collect$$$$00000001) for _main_stk
    uldiv.o(.text) refers to llushr.o(.text) for __aeabi_llsr
    uldiv.o(.text) refers to llshl.o(.text) for __aeabi_llsl
    printfb.o(i.__0fprintf$bare) refers to printfb.o(i._printf_core) for _printf_core
    printfb.o(i.__0fprintf$bare) refers to uart.o(.text) for fputc
    printfb.o(i.__0printf$bare) refers to printfb.o(i._printf_core) for _printf_core
    printfb.o(i.__0printf$bare) refers to uart.o(.text) for fputc
    printfb.o(i.__0printf$bare) refers to uart.o(.data) for __stdout
    printfb.o(i.__0snprintf$bare) refers to printfb.o(i._printf_core) for _printf_core
    printfb.o(i.__0snprintf$bare) refers to printfb.o(i._snputc) for _snputc
    printfb.o(i.__0sprintf$bare) refers to printfb.o(i._printf_core) for _printf_core
    printfb.o(i.__0sprintf$bare) refers to printfb.o(i._sputc) for _sputc
    printfb.o(i.__0vfprintf$bare) refers to printfb.o(i._printf_core) for _printf_core
    printfb.o(i.__0vfprintf$bare) refers to uart.o(.text) for fputc
    printfb.o(i.__0vprintf$bare) refers to printfb.o(i._printf_core) for _printf_core
    printfb.o(i.__0vprintf$bare) refers to uart.o(.text) for fputc
    printfb.o(i.__0vprintf$bare) refers to uart.o(.data) for __stdout
    printfb.o(i.__0vsnprintf$bare) refers to printfb.o(i._printf_core) for _printf_core
    printfb.o(i.__0vsnprintf$bare) refers to printfb.o(i._snputc) for _snputc
    printfb.o(i.__0vsprintf$bare) refers to printfb.o(i._printf_core) for _printf_core
    printfb.o(i.__0vsprintf$bare) refers to printfb.o(i._sputc) for _sputc
    printf0.o(i.__0fprintf$0) refers to printf0.o(i._printf_core) for _printf_core
    printf0.o(i.__0fprintf$0) refers to uart.o(.text) for fputc
    printf0.o(i.__0printf$0) refers to printf0.o(i._printf_core) for _printf_core
    printf0.o(i.__0printf$0) refers to uart.o(.text) for fputc
    printf0.o(i.__0printf$0) refers to uart.o(.data) for __stdout
    printf0.o(i.__0snprintf$0) refers to printf0.o(i._printf_core) for _printf_core
    printf0.o(i.__0snprintf$0) refers to printf0.o(i._snputc) for _snputc
    printf0.o(i.__0sprintf$0) refers to printf0.o(i._printf_core) for _printf_core
    printf0.o(i.__0sprintf$0) refers to printf0.o(i._sputc) for _sputc
    printf0.o(i.__0vfprintf$0) refers to printf0.o(i._printf_core) for _printf_core
    printf0.o(i.__0vfprintf$0) refers to uart.o(.text) for fputc
    printf0.o(i.__0vprintf$0) refers to printf0.o(i._printf_core) for _printf_core
    printf0.o(i.__0vprintf$0) refers to uart.o(.text) for fputc
    printf0.o(i.__0vprintf$0) refers to uart.o(.data) for __stdout
    printf0.o(i.__0vsnprintf$0) refers to printf0.o(i._printf_core) for _printf_core
    printf0.o(i.__0vsnprintf$0) refers to printf0.o(i._snputc) for _snputc
    printf0.o(i.__0vsprintf$0) refers to printf0.o(i._printf_core) for _printf_core
    printf0.o(i.__0vsprintf$0) refers to printf0.o(i._sputc) for _sputc
    printf1.o(i.__0fprintf$1) refers to printf1.o(i._printf_core) for _printf_core
    printf1.o(i.__0fprintf$1) refers to uart.o(.text) for fputc
    printf1.o(i.__0printf$1) refers to printf1.o(i._printf_core) for _printf_core
    printf1.o(i.__0printf$1) refers to uart.o(.text) for fputc
    printf1.o(i.__0printf$1) refers to uart.o(.data) for __stdout
    printf1.o(i.__0snprintf$1) refers to printf1.o(i._printf_core) for _printf_core
    printf1.o(i.__0snprintf$1) refers to printf1.o(i._snputc) for _snputc
    printf1.o(i.__0sprintf$1) refers to printf1.o(i._printf_core) for _printf_core
    printf1.o(i.__0sprintf$1) refers to printf1.o(i._sputc) for _sputc
    printf1.o(i.__0vfprintf$1) refers to printf1.o(i._printf_core) for _printf_core
    printf1.o(i.__0vfprintf$1) refers to uart.o(.text) for fputc
    printf1.o(i.__0vprintf$1) refers to printf1.o(i._printf_core) for _printf_core
    printf1.o(i.__0vprintf$1) refers to uart.o(.text) for fputc
    printf1.o(i.__0vprintf$1) refers to uart.o(.data) for __stdout
    printf1.o(i.__0vsnprintf$1) refers to printf1.o(i._printf_core) for _printf_core
    printf1.o(i.__0vsnprintf$1) refers to printf1.o(i._snputc) for _snputc
    printf1.o(i.__0vsprintf$1) refers to printf1.o(i._printf_core) for _printf_core
    printf1.o(i.__0vsprintf$1) refers to printf1.o(i._sputc) for _sputc
    printf1.o(i._printf_core) refers to uidiv.o(.text) for __aeabi_uidivmod
    printf2.o(i.__0fprintf$2) refers to printf2.o(i._printf_core) for _printf_core
    printf2.o(i.__0fprintf$2) refers to uart.o(.text) for fputc
    printf2.o(i.__0printf$2) refers to printf2.o(i._printf_core) for _printf_core
    printf2.o(i.__0printf$2) refers to uart.o(.text) for fputc
    printf2.o(i.__0printf$2) refers to uart.o(.data) for __stdout
    printf2.o(i.__0snprintf$2) refers to printf2.o(i._printf_core) for _printf_core
    printf2.o(i.__0snprintf$2) refers to printf2.o(i._snputc) for _snputc
    printf2.o(i.__0sprintf$2) refers to printf2.o(i._printf_core) for _printf_core
    printf2.o(i.__0sprintf$2) refers to printf2.o(i._sputc) for _sputc
    printf2.o(i.__0vfprintf$2) refers to printf2.o(i._printf_core) for _printf_core
    printf2.o(i.__0vfprintf$2) refers to uart.o(.text) for fputc
    printf2.o(i.__0vprintf$2) refers to printf2.o(i._printf_core) for _printf_core
    printf2.o(i.__0vprintf$2) refers to uart.o(.text) for fputc
    printf2.o(i.__0vprintf$2) refers to uart.o(.data) for __stdout
    printf2.o(i.__0vsnprintf$2) refers to printf2.o(i._printf_core) for _printf_core
    printf2.o(i.__0vsnprintf$2) refers to printf2.o(i._snputc) for _snputc
    printf2.o(i.__0vsprintf$2) refers to printf2.o(i._printf_core) for _printf_core
    printf2.o(i.__0vsprintf$2) refers to printf2.o(i._sputc) for _sputc
    printf3.o(i.__0fprintf$3) refers to printf3.o(i._printf_core) for _printf_core
    printf3.o(i.__0fprintf$3) refers to uart.o(.text) for fputc
    printf3.o(i.__0printf$3) refers to printf3.o(i._printf_core) for _printf_core
    printf3.o(i.__0printf$3) refers to uart.o(.text) for fputc
    printf3.o(i.__0printf$3) refers to uart.o(.data) for __stdout
    printf3.o(i.__0snprintf$3) refers to printf3.o(i._printf_core) for _printf_core
    printf3.o(i.__0snprintf$3) refers to printf3.o(i._snputc) for _snputc
    printf3.o(i.__0sprintf$3) refers to printf3.o(i._printf_core) for _printf_core
    printf3.o(i.__0sprintf$3) refers to printf3.o(i._sputc) for _sputc
    printf3.o(i.__0vfprintf$3) refers to printf3.o(i._printf_core) for _printf_core
    printf3.o(i.__0vfprintf$3) refers to uart.o(.text) for fputc
    printf3.o(i.__0vprintf$3) refers to printf3.o(i._printf_core) for _printf_core
    printf3.o(i.__0vprintf$3) refers to uart.o(.text) for fputc
    printf3.o(i.__0vprintf$3) refers to uart.o(.data) for __stdout
    printf3.o(i.__0vsnprintf$3) refers to printf3.o(i._printf_core) for _printf_core
    printf3.o(i.__0vsnprintf$3) refers to printf3.o(i._snputc) for _snputc
    printf3.o(i.__0vsprintf$3) refers to printf3.o(i._printf_core) for _printf_core
    printf3.o(i.__0vsprintf$3) refers to printf3.o(i._sputc) for _sputc
    printf3.o(i._printf_core) refers to uidiv.o(.text) for __aeabi_uidivmod
    printf4.o(i.__0fprintf$4) refers to printf4.o(i._printf_core) for _printf_core
    printf4.o(i.__0fprintf$4) refers to uart.o(.text) for fputc
    printf4.o(i.__0printf$4) refers to printf4.o(i._printf_core) for _printf_core
    printf4.o(i.__0printf$4) refers to uart.o(.text) for fputc
    printf4.o(i.__0printf$4) refers to uart.o(.data) for __stdout
    printf4.o(i.__0snprintf$4) refers to printf4.o(i._printf_core) for _printf_core
    printf4.o(i.__0snprintf$4) refers to printf4.o(i._snputc) for _snputc
    printf4.o(i.__0sprintf$4) refers to printf4.o(i._printf_core) for _printf_core
    printf4.o(i.__0sprintf$4) refers to printf4.o(i._sputc) for _sputc
    printf4.o(i.__0vfprintf$4) refers to printf4.o(i._printf_core) for _printf_core
    printf4.o(i.__0vfprintf$4) refers to uart.o(.text) for fputc
    printf4.o(i.__0vprintf$4) refers to printf4.o(i._printf_core) for _printf_core
    printf4.o(i.__0vprintf$4) refers to uart.o(.text) for fputc
    printf4.o(i.__0vprintf$4) refers to uart.o(.data) for __stdout
    printf4.o(i.__0vsnprintf$4) refers to printf4.o(i._printf_core) for _printf_core
    printf4.o(i.__0vsnprintf$4) refers to printf4.o(i._snputc) for _snputc
    printf4.o(i.__0vsprintf$4) refers to printf4.o(i._printf_core) for _printf_core
    printf4.o(i.__0vsprintf$4) refers to printf4.o(i._sputc) for _sputc
    printf4.o(i._printf_core) refers to uldiv.o(.text) for __aeabi_uldivmod
    printf5.o(i.__0fprintf$5) refers to printf5.o(i._printf_core) for _printf_core
    printf5.o(i.__0fprintf$5) refers to uart.o(.text) for fputc
    printf5.o(i.__0printf$5) refers to printf5.o(i._printf_core) for _printf_core
    printf5.o(i.__0printf$5) refers to uart.o(.text) for fputc
    printf5.o(i.__0printf$5) refers to uart.o(.data) for __stdout
    printf5.o(i.__0snprintf$5) refers to printf5.o(i._printf_core) for _printf_core
    printf5.o(i.__0snprintf$5) refers to printf5.o(i._snputc) for _snputc
    printf5.o(i.__0sprintf$5) refers to printf5.o(i._printf_core) for _printf_core
    printf5.o(i.__0sprintf$5) refers to printf5.o(i._sputc) for _sputc
    printf5.o(i.__0vfprintf$5) refers to printf5.o(i._printf_core) for _printf_core
    printf5.o(i.__0vfprintf$5) refers to uart.o(.text) for fputc
    printf5.o(i.__0vprintf$5) refers to printf5.o(i._printf_core) for _printf_core
    printf5.o(i.__0vprintf$5) refers to uart.o(.text) for fputc
    printf5.o(i.__0vprintf$5) refers to uart.o(.data) for __stdout
    printf5.o(i.__0vsnprintf$5) refers to printf5.o(i._printf_core) for _printf_core
    printf5.o(i.__0vsnprintf$5) refers to printf5.o(i._snputc) for _snputc
    printf5.o(i.__0vsprintf$5) refers to printf5.o(i._printf_core) for _printf_core
    printf5.o(i.__0vsprintf$5) refers to printf5.o(i._sputc) for _sputc
    printf5.o(i._printf_core) refers to uldiv.o(.text) for __aeabi_uldivmod
    printf6.o(i.__0fprintf$6) refers to printf6.o(i._printf_core) for _printf_core
    printf6.o(i.__0fprintf$6) refers to uart.o(.text) for fputc
    printf6.o(i.__0printf$6) refers to printf6.o(i._printf_core) for _printf_core
    printf6.o(i.__0printf$6) refers to uart.o(.text) for fputc
    printf6.o(i.__0printf$6) refers to uart.o(.data) for __stdout
    printf6.o(i.__0snprintf$6) refers to printf6.o(i._printf_core) for _printf_core
    printf6.o(i.__0snprintf$6) refers to printf6.o(i._snputc) for _snputc
    printf6.o(i.__0sprintf$6) refers to printf6.o(i._printf_core) for _printf_core
    printf6.o(i.__0sprintf$6) refers to printf6.o(i._sputc) for _sputc
    printf6.o(i.__0vfprintf$6) refers to printf6.o(i._printf_core) for _printf_core
    printf6.o(i.__0vfprintf$6) refers to uart.o(.text) for fputc
    printf6.o(i.__0vprintf$6) refers to printf6.o(i._printf_core) for _printf_core
    printf6.o(i.__0vprintf$6) refers to uart.o(.text) for fputc
    printf6.o(i.__0vprintf$6) refers to uart.o(.data) for __stdout
    printf6.o(i.__0vsnprintf$6) refers to printf6.o(i._printf_core) for _printf_core
    printf6.o(i.__0vsnprintf$6) refers to printf6.o(i._snputc) for _snputc
    printf6.o(i.__0vsprintf$6) refers to printf6.o(i._printf_core) for _printf_core
    printf6.o(i.__0vsprintf$6) refers to printf6.o(i._sputc) for _sputc
    printf6.o(i._printf_core) refers to printf6.o(i._printf_pre_padding) for _printf_pre_padding
    printf6.o(i._printf_core) refers to uidiv.o(.text) for __aeabi_uidivmod
    printf6.o(i._printf_core) refers to printf6.o(i._printf_post_padding) for _printf_post_padding
    printf7.o(i.__0fprintf$7) refers to printf7.o(i._printf_core) for _printf_core
    printf7.o(i.__0fprintf$7) refers to uart.o(.text) for fputc
    printf7.o(i.__0printf$7) refers to printf7.o(i._printf_core) for _printf_core
    printf7.o(i.__0printf$7) refers to uart.o(.text) for fputc
    printf7.o(i.__0printf$7) refers to uart.o(.data) for __stdout
    printf7.o(i.__0snprintf$7) refers to printf7.o(i._printf_core) for _printf_core
    printf7.o(i.__0snprintf$7) refers to printf7.o(i._snputc) for _snputc
    printf7.o(i.__0sprintf$7) refers to printf7.o(i._printf_core) for _printf_core
    printf7.o(i.__0sprintf$7) refers to printf7.o(i._sputc) for _sputc
    printf7.o(i.__0vfprintf$7) refers to printf7.o(i._printf_core) for _printf_core
    printf7.o(i.__0vfprintf$7) refers to uart.o(.text) for fputc
    printf7.o(i.__0vprintf$7) refers to printf7.o(i._printf_core) for _printf_core
    printf7.o(i.__0vprintf$7) refers to uart.o(.text) for fputc
    printf7.o(i.__0vprintf$7) refers to uart.o(.data) for __stdout
    printf7.o(i.__0vsnprintf$7) refers to printf7.o(i._printf_core) for _printf_core
    printf7.o(i.__0vsnprintf$7) refers to printf7.o(i._snputc) for _snputc
    printf7.o(i.__0vsprintf$7) refers to printf7.o(i._printf_core) for _printf_core
    printf7.o(i.__0vsprintf$7) refers to printf7.o(i._sputc) for _sputc
    printf7.o(i._printf_core) refers to printf7.o(i._printf_pre_padding) for _printf_pre_padding
    printf7.o(i._printf_core) refers to uldiv.o(.text) for __aeabi_uldivmod
    printf7.o(i._printf_core) refers to printf7.o(i._printf_post_padding) for _printf_post_padding
    printf8.o(i.__0fprintf$8) refers to printf8.o(i._printf_core) for _printf_core
    printf8.o(i.__0fprintf$8) refers to uart.o(.text) for fputc
    printf8.o(i.__0printf$8) refers to printf8.o(i._printf_core) for _printf_core
    printf8.o(i.__0printf$8) refers to uart.o(.text) for fputc
    printf8.o(i.__0printf$8) refers to uart.o(.data) for __stdout
    printf8.o(i.__0snprintf$8) refers to printf8.o(i._printf_core) for _printf_core
    printf8.o(i.__0snprintf$8) refers to printf8.o(i._snputc) for _snputc
    printf8.o(i.__0sprintf$8) refers to printf8.o(i._printf_core) for _printf_core
    printf8.o(i.__0sprintf$8) refers to printf8.o(i._sputc) for _sputc
    printf8.o(i.__0vfprintf$8) refers to printf8.o(i._printf_core) for _printf_core
    printf8.o(i.__0vfprintf$8) refers to uart.o(.text) for fputc
    printf8.o(i.__0vprintf$8) refers to printf8.o(i._printf_core) for _printf_core
    printf8.o(i.__0vprintf$8) refers to uart.o(.text) for fputc
    printf8.o(i.__0vprintf$8) refers to uart.o(.data) for __stdout
    printf8.o(i.__0vsnprintf$8) refers to printf8.o(i._printf_core) for _printf_core
    printf8.o(i.__0vsnprintf$8) refers to printf8.o(i._snputc) for _snputc
    printf8.o(i.__0vsprintf$8) refers to printf8.o(i._printf_core) for _printf_core
    printf8.o(i.__0vsprintf$8) refers to printf8.o(i._sputc) for _sputc
    printf8.o(i._printf_core) refers to printf8.o(i._printf_pre_padding) for _printf_pre_padding
    printf8.o(i._printf_core) refers to uldiv.o(.text) for __aeabi_uldivmod
    printf8.o(i._printf_core) refers to printf8.o(i._printf_post_padding) for _printf_post_padding
    printfa.o(i.__0fprintf) refers (Special) to iusefp.o(.text) for __I$use$fp
    printfa.o(i.__0fprintf) refers to printfa.o(i._printf_core) for _printf_core
    printfa.o(i.__0fprintf) refers to uart.o(.text) for fputc
    printfa.o(i.__0printf) refers (Special) to iusefp.o(.text) for __I$use$fp
    printfa.o(i.__0printf) refers to printfa.o(i._printf_core) for _printf_core
    printfa.o(i.__0printf) refers to uart.o(.text) for fputc
    printfa.o(i.__0printf) refers to uart.o(.data) for __stdout
    printfa.o(i.__0snprintf) refers (Special) to iusefp.o(.text) for __I$use$fp
    printfa.o(i.__0snprintf) refers to printfa.o(i._printf_core) for _printf_core
    printfa.o(i.__0snprintf) refers to printfa.o(i._snputc) for _snputc
    printfa.o(i.__0sprintf) refers (Special) to iusefp.o(.text) for __I$use$fp
    printfa.o(i.__0sprintf) refers to printfa.o(i._printf_core) for _printf_core
    printfa.o(i.__0sprintf) refers to printfa.o(i._sputc) for _sputc
    printfa.o(i.__0vfprintf) refers (Special) to iusefp.o(.text) for __I$use$fp
    printfa.o(i.__0vfprintf) refers to printfa.o(i._printf_core) for _printf_core
    printfa.o(i.__0vfprintf) refers to uart.o(.text) for fputc
    printfa.o(i.__0vprintf) refers (Special) to iusefp.o(.text) for __I$use$fp
    printfa.o(i.__0vprintf) refers to printfa.o(i._printf_core) for _printf_core
    printfa.o(i.__0vprintf) refers to uart.o(.text) for fputc
    printfa.o(i.__0vprintf) refers to uart.o(.data) for __stdout
    printfa.o(i.__0vsnprintf) refers (Special) to iusefp.o(.text) for __I$use$fp
    printfa.o(i.__0vsnprintf) refers to printfa.o(i._printf_core) for _printf_core
    printfa.o(i.__0vsnprintf) refers to printfa.o(i._snputc) for _snputc
    printfa.o(i.__0vsprintf) refers (Special) to iusefp.o(.text) for __I$use$fp
    printfa.o(i.__0vsprintf) refers to printfa.o(i._printf_core) for _printf_core
    printfa.o(i.__0vsprintf) refers to printfa.o(i._sputc) for _sputc
    printfa.o(i._fp_digits) refers (Special) to iusefp.o(.text) for __I$use$fp
    printfa.o(i._fp_digits) refers to dmul.o(.text) for __aeabi_dmul
    printfa.o(i._fp_digits) refers to ddiv.o(.text) for __aeabi_ddiv
    printfa.o(i._fp_digits) refers to cdrcmple.o(.text) for __aeabi_cdrcmple
    printfa.o(i._fp_digits) refers to dadd.o(.text) for __aeabi_dadd
    printfa.o(i._fp_digits) refers to dfixul.o(.text) for __aeabi_d2ulz
    printfa.o(i._fp_digits) refers to uldiv.o(.text) for __aeabi_uldivmod
    printfa.o(i._printf_core) refers (Special) to iusefp.o(.text) for __I$use$fp
    printfa.o(i._printf_core) refers to printfa.o(i._printf_pre_padding) for _printf_pre_padding
    printfa.o(i._printf_core) refers to uldiv.o(.text) for __aeabi_uldivmod
    printfa.o(i._printf_core) refers to printfa.o(i._printf_post_padding) for _printf_post_padding
    printfa.o(i._printf_core) refers to printfa.o(i._fp_digits) for _fp_digits
    printfa.o(i._printf_core) refers to uidiv.o(.text) for __aeabi_uidivmod
    printfa.o(i._printf_post_padding) refers (Special) to iusefp.o(.text) for __I$use$fp
    printfa.o(i._printf_pre_padding) refers (Special) to iusefp.o(.text) for __I$use$fp
    printfa.o(i._snputc) refers (Special) to iusefp.o(.text) for __I$use$fp
    printfa.o(i._sputc) refers (Special) to iusefp.o(.text) for __I$use$fp
    __0sscanf.o(.text) refers to scanf_char.o(.text) for __vfscanf_char
    __0sscanf.o(.text) refers to _sgetc.o(.text) for _sgetc
    atoi.o(.text) refers to errno.o(i.__aeabi_errno_addr) for __aeabi_errno_addr
    atoi.o(.text) refers to strtol.o(.text) for strtol
    dmul.o(.text) refers (Special) to iusefp.o(.text) for __I$use$fp
    dmul.o(.text) refers to depilogue.o(.text) for _double_epilogue
    dfltui.o(.text) refers (Special) to iusefp.o(.text) for __I$use$fp
    dfltui.o(.text) refers to depilogue.o(.text) for _double_epilogue
    dfixui.o(.text) refers (Special) to iusefp.o(.text) for __I$use$fp
    dfixui.o(.text) refers to llushr.o(.text) for __aeabi_llsr
    f2d.o(.text) refers (Special) to iusefp.o(.text) for __I$use$fp
    cdcmple.o(.text) refers (Special) to iusefp.o(.text) for __I$use$fp
    cdrcmple.o(.text) refers (Special) to iusefp.o(.text) for __I$use$fp
    entry2.o(.ARM.Collect$$$$00000001) refers to entry2.o(.ARM.Collect$$$$00002712) for __lit__00000000
    entry2.o(.ARM.Collect$$$$00002712) refers to startup_stm32f40_41xxx.o(STACK) for __initial_sp
    entry2.o(__vectab_stack_and_reset_area) refers to startup_stm32f40_41xxx.o(STACK) for __initial_sp
    entry2.o(__vectab_stack_and_reset_area) refers to entry.o(.ARM.Collect$$$$00000000) for __main
    entry5.o(.ARM.Collect$$$$00000004) refers to init.o(.text) for __scatterload
    entry9a.o(.ARM.Collect$$$$0000000B) refers to main.o(.text) for main
    entry9b.o(.ARM.Collect$$$$0000000C) refers to main.o(.text) for main
    errno.o(i.__aeabi_errno_addr) refers to errno.o(.data) for .data
    errno.o(i.__read_errno) refers to errno.o(.data) for .data
    errno.o(i.__set_errno) refers to errno.o(.data) for .data
    scanf_char.o(.text) refers to _scanf.o(.text) for __vfscanf
    scanf_char.o(.text) refers to isspace_o.o(.text) for isspace
    strtol.o(.text) refers to ctype_o.o(.text) for __rt_ctype_table
    strtol.o(.text) refers to _strtoul.o(.text) for _strtoul
    strtol.o(.text) refers to errno.o(i.__aeabi_errno_addr) for __aeabi_errno_addr
    depilogue.o(.text) refers to llshl.o(.text) for __aeabi_llsl
    depilogue.o(.text) refers to llushr.o(.text) for __aeabi_llsr
    dadd.o(.text) refers to llshl.o(.text) for __aeabi_llsl
    dadd.o(.text) refers to llsshr.o(.text) for __aeabi_lasr
    dadd.o(.text) refers to depilogue.o(.text) for _double_epilogue
    ddiv.o(.text) refers to depilogue.o(.text) for _double_round
    dsqrt.o(.text) refers to llushr.o(.text) for __aeabi_llsr
    dsqrt.o(.text) refers to depilogue.o(.text) for _double_round
    dfixul.o(.text) refers to llushr.o(.text) for __aeabi_llsr
    dfixul.o(.text) refers to llshl.o(.text) for __aeabi_llsl
    init.o(.text) refers to entry5.o(.ARM.Collect$$$$00000004) for __main_after_scatterload
    isspace_c.o(.text) refers to ctype_c.o(.text) for __ctype_lookup
    ctype_o.o(.text) refers to ctype_o.o(.constdata) for .constdata
    ctype_o.o(.constdata) refers to ctype_o.o(.constdata) for __ctype_table
    isalnum_o.o(.text) refers to ctype_o.o(.text) for __rt_ctype_table
    isalpha_o.o(.text) refers to ctype_o.o(.text) for __rt_ctype_table
    isblank_o.o(.text) refers to ctype_o.o(.constdata) for __ctype_table
    iscntrl_o.o(.text) refers to ctype_o.o(.text) for __rt_ctype_table
    isdigit_o.o(.text) refers to ctype_o.o(.text) for __rt_ctype_table
    isgraph_o.o(.text) refers to ctype_o.o(.text) for __rt_ctype_table
    islower_o.o(.text) refers to ctype_o.o(.text) for __rt_ctype_table
    isprint_o.o(.text) refers to ctype_o.o(.text) for __rt_ctype_table
    ispunct_o.o(.text) refers to ctype_o.o(.text) for __rt_ctype_table
    isspace_o.o(.text) refers to ctype_o.o(.text) for __rt_ctype_table
    isupper_o.o(.text) refers to ctype_o.o(.text) for __rt_ctype_table
    isxdigit_o.o(.text) refers to ctype_o.o(.text) for __rt_ctype_table
    _scanf.o(.text) refers (Weak) to _scanf_str.o(.text) for _scanf_string
    _strtoul.o(.text) refers to _chval.o(.text) for _chval
    _strtoul.o(.text) refers to errno.o(i.__aeabi_errno_addr) for __aeabi_errno_addr
    ctype_c.o(.text) refers to ctype_c.o(.constdata) for .constdata


==============================================================================

Removing Unused input sections from the image.

    Removing main.o(.rev16_text), (4 bytes).
    Removing main.o(.revsh_text), (4 bytes).
    Removing stm32f4xx_it.o(.rev16_text), (4 bytes).
    Removing stm32f4xx_it.o(.revsh_text), (4 bytes).
    Removing system_stm32f4xx.o(.rev16_text), (4 bytes).
    Removing system_stm32f4xx.o(.revsh_text), (4 bytes).
    Removing my_config.o(.rev16_text), (4 bytes).
    Removing my_config.o(.revsh_text), (4 bytes).
    Removing my_config.o(.emb_text), (16 bytes).
    Removing my_config.o(.text), (2 bytes).
    Removing my_lib.o(.rev16_text), (4 bytes).
    Removing my_lib.o(.revsh_text), (4 bytes).
    Removing my_reg.o(.rev16_text), (4 bytes).
    Removing my_reg.o(.revsh_text), (4 bytes).
    Removing my_reg.o(.text), (2 bytes).
    Removing lvgl_font.o(.constdata), (18707 bytes).
    Removing lvgl_font.o(.constdata), (880 bytes).
    Removing lvgl_font.o(.constdata), (28 bytes).
    Removing lvgl_font.o(.constdata), (40 bytes).
    Removing lvgl_font.o(.constdata), (24 bytes).
    Removing lvgl_font.o(.constdata), (28 bytes).
    Removing lvgl_font.o(.data), (8 bytes).
    Removing tupian.o(.constdata), (28800 bytes).
    Removing tupian.o(.constdata), (12 bytes).
    Removing xiangyu.o(.constdata), (28800 bytes).
    Removing xiangyu.o(.constdata), (12 bytes).
    Removing buzzer.o(.rev16_text), (4 bytes).
    Removing buzzer.o(.revsh_text), (4 bytes).
    Removing key.o(.rev16_text), (4 bytes).
    Removing key.o(.revsh_text), (4 bytes).
    Removing led.o(.rev16_text), (4 bytes).
    Removing led.o(.revsh_text), (4 bytes).
    Removing exti.o(.rev16_text), (4 bytes).
    Removing exti.o(.revsh_text), (4 bytes).
    Removing timer.o(.rev16_text), (4 bytes).
    Removing timer.o(.revsh_text), (4 bytes).
    Removing at24cxx.o(.rev16_text), (4 bytes).
    Removing at24cxx.o(.revsh_text), (4 bytes).
    Removing iic.o(.rev16_text), (4 bytes).
    Removing iic.o(.revsh_text), (4 bytes).
    Removing lcd_font.o(.rev16_text), (4 bytes).
    Removing lcd_font.o(.revsh_text), (4 bytes).
    Removing lcd_image.o(.rev16_text), (4 bytes).
    Removing lcd_image.o(.revsh_text), (4 bytes).
    Removing lcd_image.o(.constdata), (153600 bytes).
    Removing lcd_screen.o(.rev16_text), (4 bytes).
    Removing lcd_screen.o(.revsh_text), (4 bytes).
    Removing lcd_touch.o(.rev16_text), (4 bytes).
    Removing lcd_touch.o(.revsh_text), (4 bytes).
    Removing adc.o(.rev16_text), (4 bytes).
    Removing adc.o(.revsh_text), (4 bytes).
    Removing dht11.o(.rev16_text), (4 bytes).
    Removing dht11.o(.revsh_text), (4 bytes).
    Removing asrpro.o(.rev16_text), (4 bytes).
    Removing asrpro.o(.revsh_text), (4 bytes).
    Removing asrpro.o(.text), (8 bytes).
    Removing mq2.o(.rev16_text), (4 bytes).
    Removing mq2.o(.revsh_text), (4 bytes).
    Removing mq7.o(.rev16_text), (4 bytes).
    Removing mq7.o(.revsh_text), (4 bytes).
    Removing mq135.o(.rev16_text), (4 bytes).
    Removing mq135.o(.revsh_text), (4 bytes).
    Removing esp8266.o(.rev16_text), (4 bytes).
    Removing esp8266.o(.revsh_text), (4 bytes).
    Removing esp8266_gettime.o(.rev16_text), (4 bytes).
    Removing esp8266_gettime.o(.revsh_text), (4 bytes).
    Removing esp8266_getweather.o(.rev16_text), (4 bytes).
    Removing esp8266_getweather.o(.revsh_text), (4 bytes).
    Removing esp8266_getweather.o(.text), (616 bytes).
    Removing esp8266_getweather.o(.bss), (52 bytes).
    Removing esp8266_getweather.o(.constdata), (240 bytes).
    Removing esp8266_getweather.o(.conststring), (541 bytes).
    Removing delay.o(.rev16_text), (4 bytes).
    Removing delay.o(.revsh_text), (4 bytes).
    Removing uart.o(.rev16_text), (4 bytes).
    Removing uart.o(.revsh_text), (4 bytes).
    Removing uart.o(.data), (4 bytes).
    Removing stm32f4xx_gpio.o(.rev16_text), (4 bytes).
    Removing stm32f4xx_gpio.o(.revsh_text), (4 bytes).
    Removing stm32f4xx_rcc.o(.rev16_text), (4 bytes).
    Removing stm32f4xx_rcc.o(.revsh_text), (4 bytes).
    Removing stm32f4xx_exti.o(.rev16_text), (4 bytes).
    Removing stm32f4xx_exti.o(.revsh_text), (4 bytes).
    Removing stm32f4xx_syscfg.o(.rev16_text), (4 bytes).
    Removing stm32f4xx_syscfg.o(.revsh_text), (4 bytes).
    Removing misc.o(.rev16_text), (4 bytes).
    Removing misc.o(.revsh_text), (4 bytes).
    Removing stm32f4xx_tim.o(.rev16_text), (4 bytes).
    Removing stm32f4xx_tim.o(.revsh_text), (4 bytes).
    Removing stm32f4xx_usart.o(.rev16_text), (4 bytes).
    Removing stm32f4xx_usart.o(.revsh_text), (4 bytes).
    Removing stm32f4xx_spi.o(.rev16_text), (4 bytes).
    Removing stm32f4xx_spi.o(.revsh_text), (4 bytes).
    Removing stm32f4xx_spi.o(.text), (812 bytes).
    Removing stm32f4xx_fsmc.o(.rev16_text), (4 bytes).
    Removing stm32f4xx_fsmc.o(.revsh_text), (4 bytes).
    Removing stm32f4xx_pwr.o(.rev16_text), (4 bytes).
    Removing stm32f4xx_pwr.o(.revsh_text), (4 bytes).
    Removing stm32f4xx_rtc.o(.rev16_text), (4 bytes).
    Removing stm32f4xx_rtc.o(.revsh_text), (4 bytes).
    Removing stm32f4xx_adc.o(.rev16_text), (4 bytes).
    Removing stm32f4xx_adc.o(.revsh_text), (4 bytes).
    Removing startup_stm32f40_41xxx.o(HEAP), (512 bytes).
    Removing lv_draw_triangle.o(.text), (22 bytes).
    Removing lv_draw_sw_letter.o(.constdata), (8 bytes).
    Removing qrcodegen.o(.text), (4568 bytes).
    Removing qrcodegen.o(.constdata), (392 bytes).
    Removing qrcodegen.o(.conststring), (46 bytes).
    Removing qrcodegen.o(.data), (4 bytes).
    Removing lv_theme_basic.o(.text), (1924 bytes).
    Removing lv_theme_basic.o(.bss), (36 bytes).
    Removing lv_theme_basic.o(.data), (8 bytes).
    Removing lv_theme_mono.o(.text), (2816 bytes).
    Removing lv_theme_mono.o(.bss), (36 bytes).
    Removing lv_theme_mono.o(.data), (8 bytes).
    Removing lv_animimg.o(.text), (144 bytes).
    Removing lv_animimg.o(.constdata), (28 bytes).
    Removing lv_imgbtn.o(.text), (968 bytes).
    Removing lv_imgbtn.o(.constdata), (28 bytes).
    Removing lv_list.o(.text), (236 bytes).
    Removing lv_msgbox.o(.text), (700 bytes).
    Removing lv_span.o(.text), (3540 bytes).
    Removing lv_span.o(.bss), (1284 bytes).
    Removing lv_span.o(.constdata), (28 bytes).
    Removing lv_font_loader.o(.text), (2156 bytes).
    Removing lv_font_montserrat_32.o(.constdata), (41096 bytes).
    Removing lv_font_montserrat_32.o(.constdata), (1264 bytes).
    Removing lv_font_montserrat_32.o(.constdata), (124 bytes).
    Removing lv_font_montserrat_32.o(.constdata), (40 bytes).
    Removing lv_font_montserrat_32.o(.constdata), (158 bytes).
    Removing lv_font_montserrat_32.o(.constdata), (158 bytes).
    Removing lv_font_montserrat_32.o(.constdata), (2989 bytes).
    Removing lv_font_montserrat_32.o(.constdata), (16 bytes).
    Removing lv_font_montserrat_32.o(.constdata), (24 bytes).
    Removing lv_font_montserrat_32.o(.constdata), (28 bytes).
    Removing lv_font_montserrat_32.o(.data), (8 bytes).
    Removing lv_anim_timeline.o(.text), (508 bytes).
    Removing lv_lru.o(.text), (888 bytes).
    Removing lv_txt.o(.data), (4 bytes).
    Removing lv_canvas.o(.text), (3188 bytes).
    Removing lv_canvas.o(.constdata), (28 bytes).
    Removing lv_port_disp.o(.rev16_text), (4 bytes).
    Removing lv_port_disp.o(.revsh_text), (4 bytes).
    Removing lv_port_indev.o(.rev16_text), (4 bytes).
    Removing lv_port_indev.o(.revsh_text), (4 bytes).
    Removing lv_port_indev.o(.data), (4 bytes).
    Removing lv_port_indev.o(.data), (4 bytes).
    Removing lv_port_indev.o(.data), (4 bytes).
    Removing lv_port_indev.o(.data), (4 bytes).
    Removing lv_demo_benchmark.o(.text), (5438 bytes).
    Removing lv_demo_benchmark.o(.bss), (512 bytes).
    Removing lv_demo_benchmark.o(.constdata), (256 bytes).
    Removing lv_demo_benchmark.o(.conststring), (938 bytes).
    Removing lv_demo_benchmark.o(.data), (1812 bytes).
    Removing img_benchmark_cogwheel_alpha16.o(.constdata), (5000 bytes).
    Removing img_benchmark_cogwheel_alpha16.o(.constdata), (12 bytes).
    Removing img_benchmark_cogwheel_argb.o(.constdata), (30000 bytes).
    Removing img_benchmark_cogwheel_argb.o(.constdata), (12 bytes).
    Removing img_benchmark_cogwheel_chroma_keyed.o(.constdata), (20000 bytes).
    Removing img_benchmark_cogwheel_chroma_keyed.o(.constdata), (12 bytes).
    Removing img_benchmark_cogwheel_indexed16.o(.constdata), (5064 bytes).
    Removing img_benchmark_cogwheel_indexed16.o(.constdata), (12 bytes).
    Removing img_benchmark_cogwheel_rgb.o(.constdata), (20000 bytes).
    Removing img_benchmark_cogwheel_rgb.o(.constdata), (12 bytes).
    Removing img_benchmark_cogwheel_rgb565a8.o(.constdata), (30000 bytes).
    Removing img_benchmark_cogwheel_rgb565a8.o(.constdata), (12 bytes).
    Removing lv_font_bechmark_montserrat_12_compr_az.c.o(.constdata), (628 bytes).
    Removing lv_font_bechmark_montserrat_12_compr_az.c.o(.constdata), (224 bytes).
    Removing lv_font_bechmark_montserrat_12_compr_az.c.o(.constdata), (40 bytes).
    Removing lv_font_bechmark_montserrat_12_compr_az.c.o(.constdata), (28 bytes).
    Removing lv_font_bechmark_montserrat_12_compr_az.c.o(.constdata), (28 bytes).
    Removing lv_font_bechmark_montserrat_12_compr_az.c.o(.constdata), (154 bytes).
    Removing lv_font_bechmark_montserrat_12_compr_az.c.o(.constdata), (16 bytes).
    Removing lv_font_bechmark_montserrat_12_compr_az.c.o(.data), (24 bytes).
    Removing lv_font_bechmark_montserrat_12_compr_az.c.o(.data), (28 bytes).
    Removing lv_font_bechmark_montserrat_16_compr_az.c.o(.constdata), (940 bytes).
    Removing lv_font_bechmark_montserrat_16_compr_az.c.o(.constdata), (224 bytes).
    Removing lv_font_bechmark_montserrat_16_compr_az.c.o(.constdata), (40 bytes).
    Removing lv_font_bechmark_montserrat_16_compr_az.c.o(.constdata), (28 bytes).
    Removing lv_font_bechmark_montserrat_16_compr_az.c.o(.constdata), (28 bytes).
    Removing lv_font_bechmark_montserrat_16_compr_az.c.o(.constdata), (154 bytes).
    Removing lv_font_bechmark_montserrat_16_compr_az.c.o(.constdata), (16 bytes).
    Removing lv_font_bechmark_montserrat_16_compr_az.c.o(.data), (24 bytes).
    Removing lv_font_bechmark_montserrat_16_compr_az.c.o(.data), (28 bytes).
    Removing lv_font_bechmark_montserrat_28_compr_az.c.o(.constdata), (2148 bytes).
    Removing lv_font_bechmark_montserrat_28_compr_az.c.o(.constdata), (224 bytes).
    Removing lv_font_bechmark_montserrat_28_compr_az.c.o(.constdata), (40 bytes).
    Removing lv_font_bechmark_montserrat_28_compr_az.c.o(.constdata), (28 bytes).
    Removing lv_font_bechmark_montserrat_28_compr_az.c.o(.constdata), (28 bytes).
    Removing lv_font_bechmark_montserrat_28_compr_az.c.o(.constdata), (154 bytes).
    Removing lv_font_bechmark_montserrat_28_compr_az.c.o(.constdata), (16 bytes).
    Removing lv_font_bechmark_montserrat_28_compr_az.c.o(.data), (24 bytes).
    Removing lv_font_bechmark_montserrat_28_compr_az.c.o(.data), (28 bytes).
    Removing lv_demo_widgets.o(.text), (13560 bytes).
    Removing lv_demo_widgets.o(.bss), (12 bytes).
    Removing lv_demo_widgets.o(.constdata), (264 bytes).
    Removing lv_demo_widgets.o(.conststring), (116 bytes).
    Removing lv_demo_widgets.o(.data), (424 bytes).
    Removing img_clothes.o(.constdata), (9408 bytes).
    Removing img_clothes.o(.constdata), (12 bytes).
    Removing img_demo_widgets_avatar.o(.constdata), (71148 bytes).
    Removing img_demo_widgets_avatar.o(.constdata), (12 bytes).
    Removing img_lvgl_logo.o(.constdata), (5418 bytes).
    Removing img_lvgl_logo.o(.constdata), (12 bytes).
    Removing stream_buffer.o(.text), (1854 bytes).
    Removing rtc.o(.rev16_text), (4 bytes).
    Removing rtc.o(.revsh_text), (4 bytes).

207 unused section(s) (total 530279 bytes) removed from the image.

==============================================================================

Image Symbol Table

    Local Symbols

    Symbol Name                              Value     Ov Type        Size  Object(Section)

    ../clib/../cmprslib/zerorunl2.c          0x00000000   Number         0  __dczerorl2.o ABSOLUTE
    ../clib/microlib/ctype/ctype.c           0x00000000   Number         0  isgraph_o.o ABSOLUTE
    ../clib/microlib/ctype/ctype.c           0x00000000   Number         0  islower_o.o ABSOLUTE
    ../clib/microlib/ctype/ctype.c           0x00000000   Number         0  isprint_o.o ABSOLUTE
    ../clib/microlib/ctype/ctype.c           0x00000000   Number         0  ispunct_o.o ABSOLUTE
    ../clib/microlib/ctype/ctype.c           0x00000000   Number         0  isspace_o.o ABSOLUTE
    ../clib/microlib/ctype/ctype.c           0x00000000   Number         0  isupper_o.o ABSOLUTE
    ../clib/microlib/ctype/ctype.c           0x00000000   Number         0  isxdigit_o.o ABSOLUTE
    ../clib/microlib/ctype/ctype.c           0x00000000   Number         0  isalpha_o.o ABSOLUTE
    ../clib/microlib/ctype/ctype.c           0x00000000   Number         0  ctype_c.o ABSOLUTE
    ../clib/microlib/ctype/ctype.c           0x00000000   Number         0  isblank_o.o ABSOLUTE
    ../clib/microlib/ctype/ctype.c           0x00000000   Number         0  iscntrl_o.o ABSOLUTE
    ../clib/microlib/ctype/ctype.c           0x00000000   Number         0  isspace_c.o ABSOLUTE
    ../clib/microlib/ctype/ctype.c           0x00000000   Number         0  ctype_o.o ABSOLUTE
    ../clib/microlib/ctype/ctype.c           0x00000000   Number         0  isdigit_o.o ABSOLUTE
    ../clib/microlib/ctype/ctype.c           0x00000000   Number         0  isalnum_o.o ABSOLUTE
    ../clib/microlib/division.c              0x00000000   Number         0  uidiv.o ABSOLUTE
    ../clib/microlib/division.c              0x00000000   Number         0  uldiv.o ABSOLUTE
    ../clib/microlib/errno.c                 0x00000000   Number         0  errno.o ABSOLUTE
    ../clib/microlib/init/entry.s            0x00000000   Number         0  entry12b.o ABSOLUTE
    ../clib/microlib/init/entry.s            0x00000000   Number         0  entry12a.o ABSOLUTE
    ../clib/microlib/init/entry.s            0x00000000   Number         0  entry11b.o ABSOLUTE
    ../clib/microlib/init/entry.s            0x00000000   Number         0  entry7a.o ABSOLUTE
    ../clib/microlib/init/entry.s            0x00000000   Number         0  entry.o ABSOLUTE
    ../clib/microlib/init/entry.s            0x00000000   Number         0  entry5.o ABSOLUTE
    ../clib/microlib/init/entry.s            0x00000000   Number         0  entry2.o ABSOLUTE
    ../clib/microlib/init/entry.s            0x00000000   Number         0  entry10b.o ABSOLUTE
    ../clib/microlib/init/entry.s            0x00000000   Number         0  entry10a.o ABSOLUTE
    ../clib/microlib/init/entry.s            0x00000000   Number         0  entry9b.o ABSOLUTE
    ../clib/microlib/init/entry.s            0x00000000   Number         0  entry11a.o ABSOLUTE
    ../clib/microlib/init/entry.s            0x00000000   Number         0  entry9a.o ABSOLUTE
    ../clib/microlib/init/entry.s            0x00000000   Number         0  entry8b.o ABSOLUTE
    ../clib/microlib/init/entry.s            0x00000000   Number         0  entry8a.o ABSOLUTE
    ../clib/microlib/init/entry.s            0x00000000   Number         0  entry7b.o ABSOLUTE
    ../clib/microlib/longlong.c              0x00000000   Number         0  llsshr.o ABSOLUTE
    ../clib/microlib/longlong.c              0x00000000   Number         0  llushr.o ABSOLUTE
    ../clib/microlib/longlong.c              0x00000000   Number         0  llshl.o ABSOLUTE
    ../clib/microlib/printf/printf.c         0x00000000   Number         0  printf6.o ABSOLUTE
    ../clib/microlib/printf/printf.c         0x00000000   Number         0  printf7.o ABSOLUTE
    ../clib/microlib/printf/printf.c         0x00000000   Number         0  printf8.o ABSOLUTE
    ../clib/microlib/printf/printf.c         0x00000000   Number         0  printfa.o ABSOLUTE
    ../clib/microlib/printf/printf.c         0x00000000   Number         0  printf1.o ABSOLUTE
    ../clib/microlib/printf/printf.c         0x00000000   Number         0  printfb.o ABSOLUTE
    ../clib/microlib/printf/printf.c         0x00000000   Number         0  printf0.o ABSOLUTE
    ../clib/microlib/printf/printf.c         0x00000000   Number         0  printf2.o ABSOLUTE
    ../clib/microlib/printf/printf.c         0x00000000   Number         0  printf3.o ABSOLUTE
    ../clib/microlib/printf/printf.c         0x00000000   Number         0  printf4.o ABSOLUTE
    ../clib/microlib/printf/printf.c         0x00000000   Number         0  printf5.o ABSOLUTE
    ../clib/microlib/printf/stubs.s          0x00000000   Number         0  stubs.o ABSOLUTE
    ../clib/microlib/string/memcmp.c         0x00000000   Number         0  memcmp.o ABSOLUTE
    ../clib/microlib/string/memcpy.c         0x00000000   Number         0  memmoveb.o ABSOLUTE
    ../clib/microlib/string/memcpy.c         0x00000000   Number         0  memcpyb.o ABSOLUTE
    ../clib/microlib/string/memcpy.c         0x00000000   Number         0  memmovea.o ABSOLUTE
    ../clib/microlib/string/memcpy.c         0x00000000   Number         0  memcpya.o ABSOLUTE
    ../clib/microlib/string/memset.c         0x00000000   Number         0  memseta.o ABSOLUTE
    ../clib/microlib/string/memset.c         0x00000000   Number         0  memset.o ABSOLUTE
    ../clib/microlib/string/strcat.c         0x00000000   Number         0  strcat.o ABSOLUTE
    ../clib/microlib/string/strchr.c         0x00000000   Number         0  strchr.o ABSOLUTE
    ../clib/microlib/string/strcmp.c         0x00000000   Number         0  strcmp.o ABSOLUTE
    ../clib/microlib/string/strcpy.c         0x00000000   Number         0  strcpy.o ABSOLUTE
    ../clib/microlib/string/strlen.c         0x00000000   Number         0  strlen.o ABSOLUTE
    ../clib/microlib/string/strncmp.c        0x00000000   Number         0  strncmp.o ABSOLUTE
    ../clib/microlib/string/strncpy.c        0x00000000   Number         0  strncpy.o ABSOLUTE
    ../clib/microlib/string/strstr.c         0x00000000   Number         0  strstr.o ABSOLUTE
    ../clib/microlib/stubs.s                 0x00000000   Number         0  useno.o ABSOLUTE
    ../clib/microlib/stubs.s                 0x00000000   Number         0  iusefp.o ABSOLUTE
    ../clib/scanf.c                          0x00000000   Number         0  scanf_char.o ABSOLUTE
    ../clib/scanf.c                          0x00000000   Number         0  atoi.o ABSOLUTE
    ../clib/scanf.c                          0x00000000   Number         0  __0sscanf.o ABSOLUTE
    ../clib/scanf.c                          0x00000000   Number         0  _scanf.o ABSOLUTE
    ../clib/scanf.c                          0x00000000   Number         0  _sgetc.o ABSOLUTE
    ../clib/scanf.c                          0x00000000   Number         0  strtol.o ABSOLUTE
    ../clib/scanf.c                          0x00000000   Number         0  _strtoul.o ABSOLUTE
    ../clib/scanf.c                          0x00000000   Number         0  _scanf_str.o ABSOLUTE
    ../clib/scanf.c                          0x00000000   Number         0  _chval.o ABSOLUTE
    ../fplib/microlib/f2d.c                  0x00000000   Number         0  f2d.o ABSOLUTE
    ../fplib/microlib/fpadd.c                0x00000000   Number         0  dadd.o ABSOLUTE
    ../fplib/microlib/fpdiv.c                0x00000000   Number         0  ddiv.o ABSOLUTE
    ../fplib/microlib/fpepilogue.c           0x00000000   Number         0  depilogue.o ABSOLUTE
    ../fplib/microlib/fpfix.c                0x00000000   Number         0  dfixul.o ABSOLUTE
    ../fplib/microlib/fpfix.c                0x00000000   Number         0  dfixui.o ABSOLUTE
    ../fplib/microlib/fpflt.c                0x00000000   Number         0  dfltui.o ABSOLUTE
    ../fplib/microlib/fpmul.c                0x00000000   Number         0  dmul.o ABSOLUTE
    ../fplib/microlib/fpsqrt.c               0x00000000   Number         0  dsqrt.o ABSOLUTE
    ../mathlib/sqrt.c                        0x00000000   Number         0  sqrt_x.o ABSOLUTE
    ../mathlib/sqrt.c                        0x00000000   Number         0  sqrt.o ABSOLUTE
    ..\CORE\startup_stm32f40_41xxx.s         0x00000000   Number         0  startup_stm32f40_41xxx.o ABSOLUTE
    ..\FreeRTOS\port\heap_4.c                0x00000000   Number         0  heap_4.o ABSOLUTE
    ..\FreeRTOS\port\port.c                  0x00000000   Number         0  port.o ABSOLUTE
    ..\FreeRTOS\src\croutine.c               0x00000000   Number         0  croutine.o ABSOLUTE
    ..\FreeRTOS\src\event_groups.c           0x00000000   Number         0  event_groups.o ABSOLUTE
    ..\FreeRTOS\src\list.c                   0x00000000   Number         0  list.o ABSOLUTE
    ..\FreeRTOS\src\queue.c                  0x00000000   Number         0  queue.o ABSOLUTE
    ..\FreeRTOS\src\stream_buffer.c          0x00000000   Number         0  stream_buffer.o ABSOLUTE
    ..\FreeRTOS\src\tasks.c                  0x00000000   Number         0  tasks.o ABSOLUTE
    ..\FreeRTOS\src\timers.c                 0x00000000   Number         0  timers.o ABSOLUTE
    ..\LVGL\demos\benchmark\assets\img_benchmark_cogwheel_alpha16.c 0x00000000   Number         0  img_benchmark_cogwheel_alpha16.o ABSOLUTE
    ..\LVGL\demos\benchmark\assets\img_benchmark_cogwheel_argb.c 0x00000000   Number         0  img_benchmark_cogwheel_argb.o ABSOLUTE
    ..\LVGL\demos\benchmark\assets\img_benchmark_cogwheel_chroma_keyed.c 0x00000000   Number         0  img_benchmark_cogwheel_chroma_keyed.o ABSOLUTE
    ..\LVGL\demos\benchmark\assets\img_benchmark_cogwheel_indexed16.c 0x00000000   Number         0  img_benchmark_cogwheel_indexed16.o ABSOLUTE
    ..\LVGL\demos\benchmark\assets\img_benchmark_cogwheel_rgb.c 0x00000000   Number         0  img_benchmark_cogwheel_rgb.o ABSOLUTE
    ..\LVGL\demos\benchmark\assets\img_benchmark_cogwheel_rgb565a8.c 0x00000000   Number         0  img_benchmark_cogwheel_rgb565a8.o ABSOLUTE
    ..\LVGL\demos\benchmark\assets\lv_font_bechmark_montserrat_12_compr_az.c.c 0x00000000   Number         0  lv_font_bechmark_montserrat_12_compr_az.c.o ABSOLUTE
    ..\LVGL\demos\benchmark\assets\lv_font_bechmark_montserrat_16_compr_az.c.c 0x00000000   Number         0  lv_font_bechmark_montserrat_16_compr_az.c.o ABSOLUTE
    ..\LVGL\demos\benchmark\assets\lv_font_bechmark_montserrat_28_compr_az.c.c 0x00000000   Number         0  lv_font_bechmark_montserrat_28_compr_az.c.o ABSOLUTE
    ..\LVGL\demos\benchmark\lv_demo_benchmark.c 0x00000000   Number         0  lv_demo_benchmark.o ABSOLUTE
    ..\LVGL\demos\keypad_encoder\lv_demo_keypad_encoder.c 0x00000000   Number         0  lv_demo_keypad_encoder.o ABSOLUTE
    ..\LVGL\demos\stress\lv_demo_stress.c    0x00000000   Number         0  lv_demo_stress.o ABSOLUTE
    ..\LVGL\demos\widgets\assets\img_clothes.c 0x00000000   Number         0  img_clothes.o ABSOLUTE
    ..\LVGL\demos\widgets\assets\img_demo_widgets_avatar.c 0x00000000   Number         0  img_demo_widgets_avatar.o ABSOLUTE
    ..\LVGL\demos\widgets\assets\img_lvgl_logo.c 0x00000000   Number         0  img_lvgl_logo.o ABSOLUTE
    ..\LVGL\demos\widgets\lv_demo_widgets.c  0x00000000   Number         0  lv_demo_widgets.o ABSOLUTE
    ..\LVGL\examples\porting\lv_port_disp.c  0x00000000   Number         0  lv_port_disp.o ABSOLUTE
    ..\LVGL\examples\porting\lv_port_fs.c    0x00000000   Number         0  lv_port_fs.o ABSOLUTE
    ..\LVGL\examples\porting\lv_port_indev.c 0x00000000   Number         0  lv_port_indev.o ABSOLUTE
    ..\LVGL\src\core\lv_disp.c               0x00000000   Number         0  lv_disp.o ABSOLUTE
    ..\LVGL\src\core\lv_event.c              0x00000000   Number         0  lv_event.o ABSOLUTE
    ..\LVGL\src\core\lv_group.c              0x00000000   Number         0  lv_group.o ABSOLUTE
    ..\LVGL\src\core\lv_indev.c              0x00000000   Number         0  lv_indev.o ABSOLUTE
    ..\LVGL\src\core\lv_indev_scroll.c       0x00000000   Number         0  lv_indev_scroll.o ABSOLUTE
    ..\LVGL\src\core\lv_obj.c                0x00000000   Number         0  lv_obj.o ABSOLUTE
    ..\LVGL\src\core\lv_obj_class.c          0x00000000   Number         0  lv_obj_class.o ABSOLUTE
    ..\LVGL\src\core\lv_obj_draw.c           0x00000000   Number         0  lv_obj_draw.o ABSOLUTE
    ..\LVGL\src\core\lv_obj_pos.c            0x00000000   Number         0  lv_obj_pos.o ABSOLUTE
    ..\LVGL\src\core\lv_obj_scroll.c         0x00000000   Number         0  lv_obj_scroll.o ABSOLUTE
    ..\LVGL\src\core\lv_obj_style.c          0x00000000   Number         0  lv_obj_style.o ABSOLUTE
    ..\LVGL\src\core\lv_obj_style_gen.c      0x00000000   Number         0  lv_obj_style_gen.o ABSOLUTE
    ..\LVGL\src\core\lv_obj_tree.c           0x00000000   Number         0  lv_obj_tree.o ABSOLUTE
    ..\LVGL\src\core\lv_refr.c               0x00000000   Number         0  lv_refr.o ABSOLUTE
    ..\LVGL\src\core\lv_theme.c              0x00000000   Number         0  lv_theme.o ABSOLUTE
    ..\LVGL\src\draw\lv_draw.c               0x00000000   Number         0  lv_draw.o ABSOLUTE
    ..\LVGL\src\draw\lv_draw_arc.c           0x00000000   Number         0  lv_draw_arc.o ABSOLUTE
    ..\LVGL\src\draw\lv_draw_img.c           0x00000000   Number         0  lv_draw_img.o ABSOLUTE
    ..\LVGL\src\draw\lv_draw_label.c         0x00000000   Number         0  lv_draw_label.o ABSOLUTE
    ..\LVGL\src\draw\lv_draw_layer.c         0x00000000   Number         0  lv_draw_layer.o ABSOLUTE
    ..\LVGL\src\draw\lv_draw_line.c          0x00000000   Number         0  lv_draw_line.o ABSOLUTE
    ..\LVGL\src\draw\lv_draw_mask.c          0x00000000   Number         0  lv_draw_mask.o ABSOLUTE
    ..\LVGL\src\draw\lv_draw_rect.c          0x00000000   Number         0  lv_draw_rect.o ABSOLUTE
    ..\LVGL\src\draw\lv_draw_transform.c     0x00000000   Number         0  lv_draw_transform.o ABSOLUTE
    ..\LVGL\src\draw\lv_draw_triangle.c      0x00000000   Number         0  lv_draw_triangle.o ABSOLUTE
    ..\LVGL\src\draw\lv_img_buf.c            0x00000000   Number         0  lv_img_buf.o ABSOLUTE
    ..\LVGL\src\draw\lv_img_cache.c          0x00000000   Number         0  lv_img_cache.o ABSOLUTE
    ..\LVGL\src\draw\lv_img_decoder.c        0x00000000   Number         0  lv_img_decoder.o ABSOLUTE
    ..\LVGL\src\draw\sw\lv_draw_sw.c         0x00000000   Number         0  lv_draw_sw.o ABSOLUTE
    ..\LVGL\src\draw\sw\lv_draw_sw_arc.c     0x00000000   Number         0  lv_draw_sw_arc.o ABSOLUTE
    ..\LVGL\src\draw\sw\lv_draw_sw_blend.c   0x00000000   Number         0  lv_draw_sw_blend.o ABSOLUTE
    ..\LVGL\src\draw\sw\lv_draw_sw_dither.c  0x00000000   Number         0  lv_draw_sw_dither.o ABSOLUTE
    ..\LVGL\src\draw\sw\lv_draw_sw_gradient.c 0x00000000   Number         0  lv_draw_sw_gradient.o ABSOLUTE
    ..\LVGL\src\draw\sw\lv_draw_sw_img.c     0x00000000   Number         0  lv_draw_sw_img.o ABSOLUTE
    ..\LVGL\src\draw\sw\lv_draw_sw_layer.c   0x00000000   Number         0  lv_draw_sw_layer.o ABSOLUTE
    ..\LVGL\src\draw\sw\lv_draw_sw_letter.c  0x00000000   Number         0  lv_draw_sw_letter.o ABSOLUTE
    ..\LVGL\src\draw\sw\lv_draw_sw_line.c    0x00000000   Number         0  lv_draw_sw_line.o ABSOLUTE
    ..\LVGL\src\draw\sw\lv_draw_sw_polygon.c 0x00000000   Number         0  lv_draw_sw_polygon.o ABSOLUTE
    ..\LVGL\src\draw\sw\lv_draw_sw_rect.c    0x00000000   Number         0  lv_draw_sw_rect.o ABSOLUTE
    ..\LVGL\src\draw\sw\lv_draw_sw_transform.c 0x00000000   Number         0  lv_draw_sw_transform.o ABSOLUTE
    ..\LVGL\src\extra\layouts\flex\lv_flex.c 0x00000000   Number         0  lv_flex.o ABSOLUTE
    ..\LVGL\src\extra\layouts\grid\lv_grid.c 0x00000000   Number         0  lv_grid.o ABSOLUTE
    ..\LVGL\src\extra\libs\bmp\lv_bmp.c      0x00000000   Number         0  lv_bmp.o ABSOLUTE
    ..\LVGL\src\extra\libs\ffmpeg\lv_ffmpeg.c 0x00000000   Number         0  lv_ffmpeg.o ABSOLUTE
    ..\LVGL\src\extra\libs\freetype\lv_freetype.c 0x00000000   Number         0  lv_freetype.o ABSOLUTE
    ..\LVGL\src\extra\libs\fsdrv\lv_fs_fatfs.c 0x00000000   Number         0  lv_fs_fatfs.o ABSOLUTE
    ..\LVGL\src\extra\libs\fsdrv\lv_fs_littlefs.c 0x00000000   Number         0  lv_fs_littlefs.o ABSOLUTE
    ..\LVGL\src\extra\libs\fsdrv\lv_fs_posix.c 0x00000000   Number         0  lv_fs_posix.o ABSOLUTE
    ..\LVGL\src\extra\libs\fsdrv\lv_fs_stdio.c 0x00000000   Number         0  lv_fs_stdio.o ABSOLUTE
    ..\LVGL\src\extra\libs\fsdrv\lv_fs_win32.c 0x00000000   Number         0  lv_fs_win32.o ABSOLUTE
    ..\LVGL\src\extra\libs\gif\gifdec.c      0x00000000   Number         0  gifdec.o ABSOLUTE
    ..\LVGL\src\extra\libs\gif\lv_gif.c      0x00000000   Number         0  lv_gif.o ABSOLUTE
    ..\LVGL\src\extra\libs\png\lodepng.c     0x00000000   Number         0  lodepng.o ABSOLUTE
    ..\LVGL\src\extra\libs\png\lv_png.c      0x00000000   Number         0  lv_png.o ABSOLUTE
    ..\LVGL\src\extra\libs\qrcode\lv_qrcode.c 0x00000000   Number         0  lv_qrcode.o ABSOLUTE
    ..\LVGL\src\extra\libs\qrcode\qrcodegen.c 0x00000000   Number         0  qrcodegen.o ABSOLUTE
    ..\LVGL\src\extra\libs\rlottie\lv_rlottie.c 0x00000000   Number         0  lv_rlottie.o ABSOLUTE
    ..\LVGL\src\extra\libs\sjpg\lv_sjpg.c    0x00000000   Number         0  lv_sjpg.o ABSOLUTE
    ..\LVGL\src\extra\libs\sjpg\tjpgd.c      0x00000000   Number         0  tjpgd.o ABSOLUTE
    ..\LVGL\src\extra\libs\tiny_ttf\lv_tiny_ttf.c 0x00000000   Number         0  lv_tiny_ttf.o ABSOLUTE
    ..\LVGL\src\extra\lv_extra.c             0x00000000   Number         0  lv_extra.o ABSOLUTE
    ..\LVGL\src\extra\others\fragment\lv_fragment.c 0x00000000   Number         0  lv_fragment.o ABSOLUTE
    ..\LVGL\src\extra\others\fragment\lv_fragment_manager.c 0x00000000   Number         0  lv_fragment_manager.o ABSOLUTE
    ..\LVGL\src\extra\others\gridnav\lv_gridnav.c 0x00000000   Number         0  lv_gridnav.o ABSOLUTE
    ..\LVGL\src\extra\others\ime\lv_ime_pinyin.c 0x00000000   Number         0  lv_ime_pinyin.o ABSOLUTE
    ..\LVGL\src\extra\others\imgfont\lv_imgfont.c 0x00000000   Number         0  lv_imgfont.o ABSOLUTE
    ..\LVGL\src\extra\others\monkey\lv_monkey.c 0x00000000   Number         0  lv_monkey.o ABSOLUTE
    ..\LVGL\src\extra\others\msg\lv_msg.c    0x00000000   Number         0  lv_msg.o ABSOLUTE
    ..\LVGL\src\extra\others\snapshot\lv_snapshot.c 0x00000000   Number         0  lv_snapshot.o ABSOLUTE
    ..\LVGL\src\extra\themes\basic\lv_theme_basic.c 0x00000000   Number         0  lv_theme_basic.o ABSOLUTE
    ..\LVGL\src\extra\themes\default\lv_theme_default.c 0x00000000   Number         0  lv_theme_default.o ABSOLUTE
    ..\LVGL\src\extra\themes\mono\lv_theme_mono.c 0x00000000   Number         0  lv_theme_mono.o ABSOLUTE
    ..\LVGL\src\extra\widgets\animimg\lv_animimg.c 0x00000000   Number         0  lv_animimg.o ABSOLUTE
    ..\LVGL\src\extra\widgets\calendar\lv_calendar.c 0x00000000   Number         0  lv_calendar.o ABSOLUTE
    ..\LVGL\src\extra\widgets\calendar\lv_calendar_header_arrow.c 0x00000000   Number         0  lv_calendar_header_arrow.o ABSOLUTE
    ..\LVGL\src\extra\widgets\calendar\lv_calendar_header_dropdown.c 0x00000000   Number         0  lv_calendar_header_dropdown.o ABSOLUTE
    ..\LVGL\src\extra\widgets\chart\lv_chart.c 0x00000000   Number         0  lv_chart.o ABSOLUTE
    ..\LVGL\src\extra\widgets\colorwheel\lv_colorwheel.c 0x00000000   Number         0  lv_colorwheel.o ABSOLUTE
    ..\LVGL\src\extra\widgets\imgbtn\lv_imgbtn.c 0x00000000   Number         0  lv_imgbtn.o ABSOLUTE
    ..\LVGL\src\extra\widgets\keyboard\lv_keyboard.c 0x00000000   Number         0  lv_keyboard.o ABSOLUTE
    ..\LVGL\src\extra\widgets\led\lv_led.c   0x00000000   Number         0  lv_led.o ABSOLUTE
    ..\LVGL\src\extra\widgets\list\lv_list.c 0x00000000   Number         0  lv_list.o ABSOLUTE
    ..\LVGL\src\extra\widgets\menu\lv_menu.c 0x00000000   Number         0  lv_menu.o ABSOLUTE
    ..\LVGL\src\extra\widgets\meter\lv_meter.c 0x00000000   Number         0  lv_meter.o ABSOLUTE
    ..\LVGL\src\extra\widgets\msgbox\lv_msgbox.c 0x00000000   Number         0  lv_msgbox.o ABSOLUTE
    ..\LVGL\src\extra\widgets\span\lv_span.c 0x00000000   Number         0  lv_span.o ABSOLUTE
    ..\LVGL\src\extra\widgets\spinbox\lv_spinbox.c 0x00000000   Number         0  lv_spinbox.o ABSOLUTE
    ..\LVGL\src\extra\widgets\spinner\lv_spinner.c 0x00000000   Number         0  lv_spinner.o ABSOLUTE
    ..\LVGL\src\extra\widgets\tabview\lv_tabview.c 0x00000000   Number         0  lv_tabview.o ABSOLUTE
    ..\LVGL\src\extra\widgets\tileview\lv_tileview.c 0x00000000   Number         0  lv_tileview.o ABSOLUTE
    ..\LVGL\src\extra\widgets\win\lv_win.c   0x00000000   Number         0  lv_win.o ABSOLUTE
    ..\LVGL\src\font\lv_font.c               0x00000000   Number         0  lv_font.o ABSOLUTE
    ..\LVGL\src\font\lv_font_dejavu_16_persian_hebrew.c 0x00000000   Number         0  lv_font_dejavu_16_persian_hebrew.o ABSOLUTE
    ..\LVGL\src\font\lv_font_fmt_txt.c       0x00000000   Number         0  lv_font_fmt_txt.o ABSOLUTE
    ..\LVGL\src\font\lv_font_loader.c        0x00000000   Number         0  lv_font_loader.o ABSOLUTE
    ..\LVGL\src\font\lv_font_montserrat_10.c 0x00000000   Number         0  lv_font_montserrat_10.o ABSOLUTE
    ..\LVGL\src\font\lv_font_montserrat_12.c 0x00000000   Number         0  lv_font_montserrat_12.o ABSOLUTE
    ..\LVGL\src\font\lv_font_montserrat_12_subpx.c 0x00000000   Number         0  lv_font_montserrat_12_subpx.o ABSOLUTE
    ..\LVGL\src\font\lv_font_montserrat_14.c 0x00000000   Number         0  lv_font_montserrat_14.o ABSOLUTE
    ..\LVGL\src\font\lv_font_montserrat_16.c 0x00000000   Number         0  lv_font_montserrat_16.o ABSOLUTE
    ..\LVGL\src\font\lv_font_montserrat_18.c 0x00000000   Number         0  lv_font_montserrat_18.o ABSOLUTE
    ..\LVGL\src\font\lv_font_montserrat_20.c 0x00000000   Number         0  lv_font_montserrat_20.o ABSOLUTE
    ..\LVGL\src\font\lv_font_montserrat_22.c 0x00000000   Number         0  lv_font_montserrat_22.o ABSOLUTE
    ..\LVGL\src\font\lv_font_montserrat_24.c 0x00000000   Number         0  lv_font_montserrat_24.o ABSOLUTE
    ..\LVGL\src\font\lv_font_montserrat_26.c 0x00000000   Number         0  lv_font_montserrat_26.o ABSOLUTE
    ..\LVGL\src\font\lv_font_montserrat_28.c 0x00000000   Number         0  lv_font_montserrat_28.o ABSOLUTE
    ..\LVGL\src\font\lv_font_montserrat_28_compressed.c 0x00000000   Number         0  lv_font_montserrat_28_compressed.o ABSOLUTE
    ..\LVGL\src\font\lv_font_montserrat_30.c 0x00000000   Number         0  lv_font_montserrat_30.o ABSOLUTE
    ..\LVGL\src\font\lv_font_montserrat_32.c 0x00000000   Number         0  lv_font_montserrat_32.o ABSOLUTE
    ..\LVGL\src\font\lv_font_montserrat_34.c 0x00000000   Number         0  lv_font_montserrat_34.o ABSOLUTE
    ..\LVGL\src\font\lv_font_montserrat_36.c 0x00000000   Number         0  lv_font_montserrat_36.o ABSOLUTE
    ..\LVGL\src\font\lv_font_montserrat_38.c 0x00000000   Number         0  lv_font_montserrat_38.o ABSOLUTE
    ..\LVGL\src\font\lv_font_montserrat_40.c 0x00000000   Number         0  lv_font_montserrat_40.o ABSOLUTE
    ..\LVGL\src\font\lv_font_montserrat_42.c 0x00000000   Number         0  lv_font_montserrat_42.o ABSOLUTE
    ..\LVGL\src\font\lv_font_montserrat_44.c 0x00000000   Number         0  lv_font_montserrat_44.o ABSOLUTE
    ..\LVGL\src\font\lv_font_montserrat_46.c 0x00000000   Number         0  lv_font_montserrat_46.o ABSOLUTE
    ..\LVGL\src\font\lv_font_montserrat_48.c 0x00000000   Number         0  lv_font_montserrat_48.o ABSOLUTE
    ..\LVGL\src\font\lv_font_montserrat_8.c  0x00000000   Number         0  lv_font_montserrat_8.o ABSOLUTE
    ..\LVGL\src\font\lv_font_simsun_16_cjk.c 0x00000000   Number         0  lv_font_simsun_16_cjk.o ABSOLUTE
    ..\LVGL\src\font\lv_font_unscii_16.c     0x00000000   Number         0  lv_font_unscii_16.o ABSOLUTE
    ..\LVGL\src\font\lv_font_unscii_8.c      0x00000000   Number         0  lv_font_unscii_8.o ABSOLUTE
    ..\LVGL\src\hal\lv_hal_disp.c            0x00000000   Number         0  lv_hal_disp.o ABSOLUTE
    ..\LVGL\src\hal\lv_hal_indev.c           0x00000000   Number         0  lv_hal_indev.o ABSOLUTE
    ..\LVGL\src\hal\lv_hal_tick.c            0x00000000   Number         0  lv_hal_tick.o ABSOLUTE
    ..\LVGL\src\misc\lv_anim.c               0x00000000   Number         0  lv_anim.o ABSOLUTE
    ..\LVGL\src\misc\lv_anim_timeline.c      0x00000000   Number         0  lv_anim_timeline.o ABSOLUTE
    ..\LVGL\src\misc\lv_area.c               0x00000000   Number         0  lv_area.o ABSOLUTE
    ..\LVGL\src\misc\lv_async.c              0x00000000   Number         0  lv_async.o ABSOLUTE
    ..\LVGL\src\misc\lv_bidi.c               0x00000000   Number         0  lv_bidi.o ABSOLUTE
    ..\LVGL\src\misc\lv_color.c              0x00000000   Number         0  lv_color.o ABSOLUTE
    ..\LVGL\src\misc\lv_fs.c                 0x00000000   Number         0  lv_fs.o ABSOLUTE
    ..\LVGL\src\misc\lv_gc.c                 0x00000000   Number         0  lv_gc.o ABSOLUTE
    ..\LVGL\src\misc\lv_ll.c                 0x00000000   Number         0  lv_ll.o ABSOLUTE
    ..\LVGL\src\misc\lv_log.c                0x00000000   Number         0  lv_log.o ABSOLUTE
    ..\LVGL\src\misc\lv_lru.c                0x00000000   Number         0  lv_lru.o ABSOLUTE
    ..\LVGL\src\misc\lv_math.c               0x00000000   Number         0  lv_math.o ABSOLUTE
    ..\LVGL\src\misc\lv_mem.c                0x00000000   Number         0  lv_mem.o ABSOLUTE
    ..\LVGL\src\misc\lv_printf.c             0x00000000   Number         0  lv_printf.o ABSOLUTE
    ..\LVGL\src\misc\lv_style.c              0x00000000   Number         0  lv_style.o ABSOLUTE
    ..\LVGL\src\misc\lv_style_gen.c          0x00000000   Number         0  lv_style_gen.o ABSOLUTE
    ..\LVGL\src\misc\lv_templ.c              0x00000000   Number         0  lv_templ.o ABSOLUTE
    ..\LVGL\src\misc\lv_timer.c              0x00000000   Number         0  lv_timer.o ABSOLUTE
    ..\LVGL\src\misc\lv_tlsf.c               0x00000000   Number         0  lv_tlsf.o ABSOLUTE
    ..\LVGL\src\misc\lv_txt.c                0x00000000   Number         0  lv_txt.o ABSOLUTE
    ..\LVGL\src\misc\lv_txt_ap.c             0x00000000   Number         0  lv_txt_ap.o ABSOLUTE
    ..\LVGL\src\misc\lv_utils.c              0x00000000   Number         0  lv_utils.o ABSOLUTE
    ..\LVGL\src\widgets\lv_arc.c             0x00000000   Number         0  lv_arc.o ABSOLUTE
    ..\LVGL\src\widgets\lv_bar.c             0x00000000   Number         0  lv_bar.o ABSOLUTE
    ..\LVGL\src\widgets\lv_btn.c             0x00000000   Number         0  lv_btn.o ABSOLUTE
    ..\LVGL\src\widgets\lv_btnmatrix.c       0x00000000   Number         0  lv_btnmatrix.o ABSOLUTE
    ..\LVGL\src\widgets\lv_canvas.c          0x00000000   Number         0  lv_canvas.o ABSOLUTE
    ..\LVGL\src\widgets\lv_checkbox.c        0x00000000   Number         0  lv_checkbox.o ABSOLUTE
    ..\LVGL\src\widgets\lv_dropdown.c        0x00000000   Number         0  lv_dropdown.o ABSOLUTE
    ..\LVGL\src\widgets\lv_img.c             0x00000000   Number         0  lv_img.o ABSOLUTE
    ..\LVGL\src\widgets\lv_label.c           0x00000000   Number         0  lv_label.o ABSOLUTE
    ..\LVGL\src\widgets\lv_line.c            0x00000000   Number         0  lv_line.o ABSOLUTE
    ..\LVGL\src\widgets\lv_objx_templ.c      0x00000000   Number         0  lv_objx_templ.o ABSOLUTE
    ..\LVGL\src\widgets\lv_roller.c          0x00000000   Number         0  lv_roller.o ABSOLUTE
    ..\LVGL\src\widgets\lv_slider.c          0x00000000   Number         0  lv_slider.o ABSOLUTE
    ..\LVGL\src\widgets\lv_switch.c          0x00000000   Number         0  lv_switch.o ABSOLUTE
    ..\LVGL\src\widgets\lv_table.c           0x00000000   Number         0  lv_table.o ABSOLUTE
    ..\LVGL\src\widgets\lv_textarea.c        0x00000000   Number         0  lv_textarea.o ABSOLUTE
    ..\LVGL_FONT_IMAGE\chezaibeijing.c       0x00000000   Number         0  chezaibeijing.o ABSOLUTE
    ..\LVGL_FONT_IMAGE\lvgl_font.c           0x00000000   Number         0  lvgl_font.o ABSOLUTE
    ..\LVGL_FONT_IMAGE\tupian.c              0x00000000   Number         0  tupian.o ABSOLUTE
    ..\LVGL_FONT_IMAGE\xiangyu.c             0x00000000   Number         0  xiangyu.o ABSOLUTE
    ..\MYM4_LIB\ASRPRO\ASRPRO.c              0x00000000   Number         0  asrpro.o ABSOLUTE
    ..\MYM4_LIB\adc\adc.c                    0x00000000   Number         0  adc.o ABSOLUTE
    ..\MYM4_LIB\at24cxx\at24cxx.c            0x00000000   Number         0  at24cxx.o ABSOLUTE
    ..\MYM4_LIB\buzzer\buzzer.c              0x00000000   Number         0  buzzer.o ABSOLUTE
    ..\MYM4_LIB\dht11\dht11.c                0x00000000   Number         0  dht11.o ABSOLUTE
    ..\MYM4_LIB\esp8266\esp8266.c            0x00000000   Number         0  esp8266.o ABSOLUTE
    ..\MYM4_LIB\esp8266\esp8266_gettime.c    0x00000000   Number         0  esp8266_gettime.o ABSOLUTE
    ..\MYM4_LIB\esp8266\esp8266_getweather.c 0x00000000   Number         0  esp8266_getweather.o ABSOLUTE
    ..\MYM4_LIB\exti\exti.c                  0x00000000   Number         0  exti.o ABSOLUTE
    ..\MYM4_LIB\iic\iic.c                    0x00000000   Number         0  iic.o ABSOLUTE
    ..\MYM4_LIB\key\key.c                    0x00000000   Number         0  key.o ABSOLUTE
    ..\MYM4_LIB\lcd\lcd_font.c               0x00000000   Number         0  lcd_font.o ABSOLUTE
    ..\MYM4_LIB\lcd\lcd_image.c              0x00000000   Number         0  lcd_image.o ABSOLUTE
    ..\MYM4_LIB\lcd\lcd_screen.c             0x00000000   Number         0  lcd_screen.o ABSOLUTE
    ..\MYM4_LIB\lcd\lcd_touch.c              0x00000000   Number         0  lcd_touch.o ABSOLUTE
    ..\MYM4_LIB\led\led.c                    0x00000000   Number         0  led.o ABSOLUTE
    ..\MYM4_LIB\mq135\mq135.c                0x00000000   Number         0  mq135.o ABSOLUTE
    ..\MYM4_LIB\mq2\mq2.c                    0x00000000   Number         0  mq2.o ABSOLUTE
    ..\MYM4_LIB\mq7\mq7.c                    0x00000000   Number         0  mq7.o ABSOLUTE
    ..\MYM4_LIB\rtc\rtc.c                    0x00000000   Number         0  rtc.o ABSOLUTE
    ..\MYM4_LIB\timer\timer.c                0x00000000   Number         0  timer.o ABSOLUTE
    ..\ST_LIB\src\misc.c                     0x00000000   Number         0  misc.o ABSOLUTE
    ..\ST_LIB\src\stm32f4xx_adc.c            0x00000000   Number         0  stm32f4xx_adc.o ABSOLUTE
    ..\ST_LIB\src\stm32f4xx_exti.c           0x00000000   Number         0  stm32f4xx_exti.o ABSOLUTE
    ..\ST_LIB\src\stm32f4xx_fsmc.c           0x00000000   Number         0  stm32f4xx_fsmc.o ABSOLUTE
    ..\ST_LIB\src\stm32f4xx_gpio.c           0x00000000   Number         0  stm32f4xx_gpio.o ABSOLUTE
    ..\ST_LIB\src\stm32f4xx_pwr.c            0x00000000   Number         0  stm32f4xx_pwr.o ABSOLUTE
    ..\ST_LIB\src\stm32f4xx_rcc.c            0x00000000   Number         0  stm32f4xx_rcc.o ABSOLUTE
    ..\ST_LIB\src\stm32f4xx_rtc.c            0x00000000   Number         0  stm32f4xx_rtc.o ABSOLUTE
    ..\ST_LIB\src\stm32f4xx_spi.c            0x00000000   Number         0  stm32f4xx_spi.o ABSOLUTE
    ..\ST_LIB\src\stm32f4xx_syscfg.c         0x00000000   Number         0  stm32f4xx_syscfg.o ABSOLUTE
    ..\ST_LIB\src\stm32f4xx_tim.c            0x00000000   Number         0  stm32f4xx_tim.o ABSOLUTE
    ..\ST_LIB\src\stm32f4xx_usart.c          0x00000000   Number         0  stm32f4xx_usart.o ABSOLUTE
    ..\SYSTEM\delay\delay.c                  0x00000000   Number         0  delay.o ABSOLUTE
    ..\SYSTEM\uart\uart.c                    0x00000000   Number         0  uart.o ABSOLUTE
    ..\\FreeRTOS\\port\\port.c               0x00000000   Number         0  port.o ABSOLUTE
    ..\\LVGL\\examples\\porting\\lv_port_disp.c 0x00000000   Number         0  lv_port_disp.o ABSOLUTE
    ..\\LVGL\\examples\\porting\\lv_port_indev.c 0x00000000   Number         0  lv_port_indev.o ABSOLUTE
    ..\\MYM4_LIB\\ASRPRO\\ASRPRO.c           0x00000000   Number         0  asrpro.o ABSOLUTE
    ..\\MYM4_LIB\\adc\\adc.c                 0x00000000   Number         0  adc.o ABSOLUTE
    ..\\MYM4_LIB\\at24cxx\\at24cxx.c         0x00000000   Number         0  at24cxx.o ABSOLUTE
    ..\\MYM4_LIB\\buzzer\\buzzer.c           0x00000000   Number         0  buzzer.o ABSOLUTE
    ..\\MYM4_LIB\\dht11\\dht11.c             0x00000000   Number         0  dht11.o ABSOLUTE
    ..\\MYM4_LIB\\esp8266\\esp8266.c         0x00000000   Number         0  esp8266.o ABSOLUTE
    ..\\MYM4_LIB\\esp8266\\esp8266_gettime.c 0x00000000   Number         0  esp8266_gettime.o ABSOLUTE
    ..\\MYM4_LIB\\esp8266\\esp8266_getweather.c 0x00000000   Number         0  esp8266_getweather.o ABSOLUTE
    ..\\MYM4_LIB\\exti\\exti.c               0x00000000   Number         0  exti.o ABSOLUTE
    ..\\MYM4_LIB\\iic\\iic.c                 0x00000000   Number         0  iic.o ABSOLUTE
    ..\\MYM4_LIB\\key\\key.c                 0x00000000   Number         0  key.o ABSOLUTE
    ..\\MYM4_LIB\\lcd\\lcd_font.c            0x00000000   Number         0  lcd_font.o ABSOLUTE
    ..\\MYM4_LIB\\lcd\\lcd_image.c           0x00000000   Number         0  lcd_image.o ABSOLUTE
    ..\\MYM4_LIB\\lcd\\lcd_screen.c          0x00000000   Number         0  lcd_screen.o ABSOLUTE
    ..\\MYM4_LIB\\lcd\\lcd_touch.c           0x00000000   Number         0  lcd_touch.o ABSOLUTE
    ..\\MYM4_LIB\\led\\led.c                 0x00000000   Number         0  led.o ABSOLUTE
    ..\\MYM4_LIB\\mq135\\mq135.c             0x00000000   Number         0  mq135.o ABSOLUTE
    ..\\MYM4_LIB\\mq2\\mq2.c                 0x00000000   Number         0  mq2.o ABSOLUTE
    ..\\MYM4_LIB\\mq7\\mq7.c                 0x00000000   Number         0  mq7.o ABSOLUTE
    ..\\MYM4_LIB\\rtc\\rtc.c                 0x00000000   Number         0  rtc.o ABSOLUTE
    ..\\MYM4_LIB\\timer\\timer.c             0x00000000   Number         0  timer.o ABSOLUTE
    ..\\ST_LIB\\src\\misc.c                  0x00000000   Number         0  misc.o ABSOLUTE
    ..\\ST_LIB\\src\\stm32f4xx_adc.c         0x00000000   Number         0  stm32f4xx_adc.o ABSOLUTE
    ..\\ST_LIB\\src\\stm32f4xx_exti.c        0x00000000   Number         0  stm32f4xx_exti.o ABSOLUTE
    ..\\ST_LIB\\src\\stm32f4xx_fsmc.c        0x00000000   Number         0  stm32f4xx_fsmc.o ABSOLUTE
    ..\\ST_LIB\\src\\stm32f4xx_gpio.c        0x00000000   Number         0  stm32f4xx_gpio.o ABSOLUTE
    ..\\ST_LIB\\src\\stm32f4xx_pwr.c         0x00000000   Number         0  stm32f4xx_pwr.o ABSOLUTE
    ..\\ST_LIB\\src\\stm32f4xx_rcc.c         0x00000000   Number         0  stm32f4xx_rcc.o ABSOLUTE
    ..\\ST_LIB\\src\\stm32f4xx_rtc.c         0x00000000   Number         0  stm32f4xx_rtc.o ABSOLUTE
    ..\\ST_LIB\\src\\stm32f4xx_spi.c         0x00000000   Number         0  stm32f4xx_spi.o ABSOLUTE
    ..\\ST_LIB\\src\\stm32f4xx_syscfg.c      0x00000000   Number         0  stm32f4xx_syscfg.o ABSOLUTE
    ..\\ST_LIB\\src\\stm32f4xx_tim.c         0x00000000   Number         0  stm32f4xx_tim.o ABSOLUTE
    ..\\ST_LIB\\src\\stm32f4xx_usart.c       0x00000000   Number         0  stm32f4xx_usart.o ABSOLUTE
    ..\\SYSTEM\\delay\\delay.c               0x00000000   Number         0  delay.o ABSOLUTE
    ..\\SYSTEM\\uart\\uart.c                 0x00000000   Number         0  uart.o ABSOLUTE
    cdcmple.s                                0x00000000   Number         0  cdcmple.o ABSOLUTE
    cdrcmple.s                               0x00000000   Number         0  cdrcmple.o ABSOLUTE
    dc.s                                     0x00000000   Number         0  dc.o ABSOLUTE
    handlers.s                               0x00000000   Number         0  handlers.o ABSOLUTE
    init.s                                   0x00000000   Number         0  init.o ABSOLUTE
    main.c                                   0x00000000   Number         0  main.o ABSOLUTE
    main.c                                   0x00000000   Number         0  main.o ABSOLUTE
    my_config.c                              0x00000000   Number         0  my_config.o ABSOLUTE
    my_config.c                              0x00000000   Number         0  my_config.o ABSOLUTE
    my_lib.c                                 0x00000000   Number         0  my_lib.o ABSOLUTE
    my_lib.c                                 0x00000000   Number         0  my_lib.o ABSOLUTE
    my_reg.c                                 0x00000000   Number         0  my_reg.o ABSOLUTE
    my_reg.c                                 0x00000000   Number         0  my_reg.o ABSOLUTE
    stm32f4xx_it.c                           0x00000000   Number         0  stm32f4xx_it.o ABSOLUTE
    stm32f4xx_it.c                           0x00000000   Number         0  stm32f4xx_it.o ABSOLUTE
    system_stm32f4xx.c                       0x00000000   Number         0  system_stm32f4xx.o ABSOLUTE
    system_stm32f4xx.c                       0x00000000   Number         0  system_stm32f4xx.o ABSOLUTE
    RESET                                    0x08000000   Section      392  startup_stm32f40_41xxx.o(RESET)
    .ARM.Collect$$$$00000000                 0x08000188   Section        0  entry.o(.ARM.Collect$$$$00000000)
    .ARM.Collect$$$$00000001                 0x08000188   Section        4  entry2.o(.ARM.Collect$$$$00000001)
    .ARM.Collect$$$$00000004                 0x0800018c   Section        4  entry5.o(.ARM.Collect$$$$00000004)
    .ARM.Collect$$$$00000008                 0x08000190   Section        0  entry7b.o(.ARM.Collect$$$$00000008)
    .ARM.Collect$$$$0000000A                 0x08000190   Section        0  entry8b.o(.ARM.Collect$$$$0000000A)
    .ARM.Collect$$$$0000000B                 0x08000190   Section        8  entry9a.o(.ARM.Collect$$$$0000000B)
    .ARM.Collect$$$$0000000E                 0x08000198   Section        4  entry12b.o(.ARM.Collect$$$$0000000E)
    .ARM.Collect$$$$0000000F                 0x0800019c   Section        0  entry10a.o(.ARM.Collect$$$$0000000F)
    .ARM.Collect$$$$00000011                 0x0800019c   Section        0  entry11a.o(.ARM.Collect$$$$00000011)
    .ARM.Collect$$$$00002712                 0x0800019c   Section        4  entry2.o(.ARM.Collect$$$$00002712)
    __lit__00000000                          0x0800019c   Data           4  entry2.o(.ARM.Collect$$$$00002712)
    .emb_text                                0x080001a0   Section      190  port.o(.emb_text)
    $v0                                      0x080001a0   Number         0  port.o(.emb_text)
    .text                                    0x08000260   Section        0  main.o(.text)
    lv_color_golden                          0x08000261   Thumb Code    48  main.o(.text)
    app_task12_esp8266                       0x08000291   Thumb Code    90  main.o(.text)
    app_task11_mq135                         0x080002eb   Thumb Code    50  main.o(.text)
    app_task10_mq7                           0x0800031d   Thumb Code    50  main.o(.text)
    app_task9_mq2                            0x0800034f   Thumb Code    50  main.o(.text)
    app_task6_dht11                          0x08000381   Thumb Code    70  main.o(.text)
    app_task5_adc                            0x080003c7   Thumb Code    58  main.o(.text)
    app_task4_rtc                            0x08000401   Thumb Code   380  main.o(.text)
    app_task3_lvgl                           0x0800057d   Thumb Code   796  main.o(.text)
    app_task2_lvgl_task                      0x08000899   Thumb Code    12  main.o(.text)
    app_task1_init                           0x080008a5   Thumb Code   366  main.o(.text)
    lv_scr_act                               0x08000a91   Thumb Code    14  main.o(.text)
    .text                                    0x08000d08   Section        0  stm32f4xx_it.o(.text)
    .text                                    0x08000d14   Section        0  system_stm32f4xx.o(.text)
    SetSysClock                              0x08000d15   Thumb Code   162  system_stm32f4xx.o(.text)
    .text                                    0x08000e90   Section        0  my_lib.o(.text)
    .text                                    0x08000ec4   Section        0  buzzer.o(.text)
    .text                                    0x08000f50   Section        0  key.o(.text)
    .text                                    0x08000f94   Section        0  led.o(.text)
    .text                                    0x08001158   Section        0  exti.o(.text)
    .text                                    0x08001270   Section        0  timer.o(.text)
    .text                                    0x080012f0   Section        0  at24cxx.o(.text)
    .text                                    0x08001430   Section        0  iic.o(.text)
    .text                                    0x08001654   Section        0  lcd_screen.o(.text)
    .text                                    0x08005dcc   Section        0  lcd_touch.o(.text)
    .text                                    0x080069d8   Section        0  adc.o(.text)
    .text                                    0x08006a80   Section        0  dht11.o(.text)
    .text                                    0x08006c34   Section        0  mq2.o(.text)
    .text                                    0x08006d18   Section        0  mq7.o(.text)
    .text                                    0x08006e00   Section        0  mq135.o(.text)
    .text                                    0x08006e34   Section        0  esp8266.o(.text)
    .text                                    0x0800727c   Section        0  esp8266_gettime.o(.text)
    .text                                    0x080074dc   Section        0  delay.o(.text)
    .text                                    0x080075b0   Section        0  uart.o(.text)
    .text                                    0x0800797c   Section        0  stm32f4xx_gpio.o(.text)
    .text                                    0x08007b88   Section        0  stm32f4xx_rcc.o(.text)
    .text                                    0x08008008   Section        0  stm32f4xx_exti.o(.text)
    .text                                    0x080080e8   Section        0  stm32f4xx_syscfg.o(.text)
    .text                                    0x08008164   Section        0  misc.o(.text)
    .text                                    0x08008214   Section        0  stm32f4xx_tim.o(.text)
    TI2_Config                               0x0800885f   Thumb Code    54  stm32f4xx_tim.o(.text)
    TI1_Config                               0x08008bc3   Thumb Code    46  stm32f4xx_tim.o(.text)
    .text                                    0x08008bf0   Section        0  stm32f4xx_usart.o(.text)
    .text                                    0x08008f48   Section        0  stm32f4xx_fsmc.o(.text)
    .text                                    0x08009390   Section        0  stm32f4xx_pwr.o(.text)
    .text                                    0x080094b8   Section        0  stm32f4xx_rtc.o(.text)
    RTC_ByteToBcd2                           0x08009ecf   Thumb Code    24  stm32f4xx_rtc.o(.text)
    RTC_Bcd2ToByte                           0x08009ee7   Thumb Code    18  stm32f4xx_rtc.o(.text)
    .text                                    0x08009f04   Section        0  stm32f4xx_adc.o(.text)
    .text                                    0x0800a258   Section       36  startup_stm32f40_41xxx.o(.text)
    $v0                                      0x0800a258   Number         0  startup_stm32f40_41xxx.o(.text)
    .text                                    0x0800a27c   Section        0  lv_disp.o(.text)
    set_y_anim                               0x0800a29d   Thumb Code     6  lv_disp.o(.text)
    set_x_anim                               0x0800a2a3   Thumb Code     6  lv_disp.o(.text)
    opa_scale_anim                           0x0800a2a9   Thumb Code     8  lv_disp.o(.text)
    scr_anim_ready                           0x0800a2b1   Thumb Code    86  lv_disp.o(.text)
    scr_load_anim_start                      0x0800a307   Thumb Code    34  lv_disp.o(.text)
    scr_load_internal                        0x0800a329   Thumb Code    84  lv_disp.o(.text)
    lv_scr_act                               0x0800a7b3   Thumb Code    12  lv_disp.o(.text)
    .text                                    0x0800a7d4   Section        0  lv_event.o(.text)
    event_send_core                          0x0800a801   Thumb Code   288  lv_event.o(.text)
    lv_obj_get_event_dsc                     0x0800ad1b   Thumb Code    38  lv_event.o(.text)
    .text                                    0x0800ad40   Section        0  lv_group.o(.text)
    get_indev                                0x0800ad77   Thumb Code    76  lv_group.o(.text)
    focus_next_core                          0x0800ae4f   Thumb Code   238  lv_group.o(.text)
    lv_group_refocus                         0x0800af81   Thumb Code    42  lv_group.o(.text)
    .text                                    0x0800b2c4   Section        0  lv_indev.o(.text)
    indev_proc_reset_query_handler           0x0800b2c5   Thumb Code    58  lv_indev.o(.text)
    indev_proc_release                       0x0800b2ff   Thumb Code   282  lv_indev.o(.text)
    indev_gesture                            0x0800b419   Thumb Code   238  lv_indev.o(.text)
    indev_click_focus                        0x0800b507   Thumb Code   152  lv_indev.o(.text)
    indev_proc_press                         0x0800b60d   Thumb Code   484  lv_indev.o(.text)
    indev_encoder_proc                       0x0800b7f1   Thumb Code   830  lv_indev.o(.text)
    indev_keypad_proc                        0x0800bb2f   Thumb Code   466  lv_indev.o(.text)
    indev_pointer_proc                       0x0800bd01   Thumb Code   178  lv_indev.o(.text)
    indev_reset_check                        0x0800c039   Thumb Code    18  lv_indev.o(.text)
    indev_button_proc                        0x0800c04b   Thumb Code   112  lv_indev.o(.text)
    .text                                    0x0800c0c0   Section        0  lv_indev_scroll.o(.text)
    scroll_limit_diff                        0x0800c0c1   Thumb Code    98  lv_indev_scroll.o(.text)
    elastic_diff                             0x0800c123   Thumb Code   390  lv_indev_scroll.o(.text)
    find_snap_point_x                        0x0800c2a9   Thumb Code   256  lv_indev_scroll.o(.text)
    find_snap_point_y                        0x0800c3a9   Thumb Code   252  lv_indev_scroll.o(.text)
    init_scroll_limits                       0x0800c4a5   Thumb Code   328  lv_indev_scroll.o(.text)
    find_scroll_obj                          0x0800c5ed   Thumb Code   560  lv_indev_scroll.o(.text)
    lv_area_get_width                        0x0800cc1f   Thumb Code    12  lv_indev_scroll.o(.text)
    lv_area_get_height                       0x0800cc2b   Thumb Code    12  lv_indev_scroll.o(.text)
    lv_obj_get_style_transform_zoom          0x0800cc37   Thumb Code    12  lv_indev_scroll.o(.text)
    lv_obj_get_style_transform_angle         0x0800cc43   Thumb Code    12  lv_indev_scroll.o(.text)
    lv_obj_get_style_pad_top                 0x0800cc4f   Thumb Code    12  lv_indev_scroll.o(.text)
    lv_obj_get_style_pad_bottom              0x0800cc5b   Thumb Code    12  lv_indev_scroll.o(.text)
    lv_obj_get_style_pad_left                0x0800cc67   Thumb Code    12  lv_indev_scroll.o(.text)
    lv_obj_get_style_pad_right               0x0800cc73   Thumb Code    12  lv_indev_scroll.o(.text)
    .text                                    0x0800cc80   Section        0  lv_obj.o(.text)
    lv_obj_set_state                         0x0800ce23   Thumb Code   410  lv_obj.o(.text)
    obj_valid_child                          0x0800d051   Thumb Code    74  lv_obj.o(.text)
    lv_obj_constructor                       0x0800d0d1   Thumb Code   114  lv_obj.o(.text)
    lv_obj_destructor                        0x0800d143   Thumb Code    98  lv_obj.o(.text)
    scrollbar_init_draw_dsc                  0x0800d1a5   Thumb Code   252  lv_obj.o(.text)
    lv_obj_draw                              0x0800d2a1   Thumb Code   700  lv_obj.o(.text)
    lv_obj_event                             0x0800d55d   Thumb Code   826  lv_obj.o(.text)
    lv_area_copy                             0x0800d897   Thumb Code    18  lv_obj.o(.text)
    lv_style_get_prop_inlined                0x0800d8a9   Thumb Code   160  lv_obj.o(.text)
    lv_obj_get_style_align                   0x0800d949   Thumb Code    12  lv_obj.o(.text)
    lv_obj_get_style_transform_width         0x0800d955   Thumb Code    12  lv_obj.o(.text)
    lv_obj_get_style_transform_height        0x0800d961   Thumb Code    12  lv_obj.o(.text)
    lv_obj_get_style_bg_opa                  0x0800d96d   Thumb Code    12  lv_obj.o(.text)
    lv_obj_get_style_border_post             0x0800d979   Thumb Code    16  lv_obj.o(.text)
    lv_obj_get_style_radius                  0x0800d989   Thumb Code    12  lv_obj.o(.text)
    lv_obj_get_style_clip_corner             0x0800d995   Thumb Code    16  lv_obj.o(.text)
    lv_obj_get_style_layout                  0x0800d9a5   Thumb Code    12  lv_obj.o(.text)
    draw_scrollbar                           0x0800d9b1   Thumb Code   164  lv_obj.o(.text)
    .text                                    0x0800da58   Section        0  lv_obj_class.o(.text)
    lv_obj_construct                         0x0800db59   Thumb Code    38  lv_obj_class.o(.text)
    .text                                    0x0800dc2c   Section        0  lv_obj_draw.o(.text)
    lv_obj_get_style_bg_color_filtered       0x0800e2eb   Thumb Code    26  lv_obj_draw.o(.text)
    lv_obj_get_style_outline_width           0x0800e305   Thumb Code    12  lv_obj_draw.o(.text)
    lv_obj_get_style_outline_opa             0x0800e311   Thumb Code    12  lv_obj_draw.o(.text)
    lv_obj_get_style_outline_pad             0x0800e31d   Thumb Code    12  lv_obj_draw.o(.text)
    lv_obj_get_style_shadow_width            0x0800e329   Thumb Code    12  lv_obj_draw.o(.text)
    lv_obj_get_style_shadow_ofs_x            0x0800e335   Thumb Code    12  lv_obj_draw.o(.text)
    lv_obj_get_style_shadow_ofs_y            0x0800e341   Thumb Code    12  lv_obj_draw.o(.text)
    lv_obj_get_style_shadow_spread           0x0800e34d   Thumb Code    12  lv_obj_draw.o(.text)
    lv_obj_get_style_shadow_opa              0x0800e359   Thumb Code    12  lv_obj_draw.o(.text)
    lv_obj_get_style_text_color_filtered     0x0800e365   Thumb Code    26  lv_obj_draw.o(.text)
    lv_obj_get_style_text_font               0x0800e37f   Thumb Code     6  lv_obj_draw.o(.text)
    lv_obj_get_style_blend_mode              0x0800e385   Thumb Code    12  lv_obj_draw.o(.text)
    .text                                    0x0800e390   Section        0  lv_obj_pos.o(.text)
    transform_point                          0x0800e3fd   Thumb Code   254  lv_obj_pos.o(.text)
    calc_content_height                      0x0800e947   Thumb Code   222  lv_obj_pos.o(.text)
    calc_content_width                       0x0800eadb   Thumb Code   370  lv_obj_pos.o(.text)
    layout_update_core                       0x0800f38b   Thumb Code   118  lv_obj_pos.o(.text)
    lv_area_copy                             0x0800f933   Thumb Code    18  lv_obj_pos.o(.text)
    lv_area_get_width                        0x0800f945   Thumb Code    12  lv_obj_pos.o(.text)
    lv_area_get_height                       0x0800f951   Thumb Code    12  lv_obj_pos.o(.text)
    lv_obj_get_style_width                   0x0800f95d   Thumb Code    12  lv_obj_pos.o(.text)
    lv_obj_get_style_height                  0x0800f969   Thumb Code    12  lv_obj_pos.o(.text)
    lv_obj_get_style_x                       0x0800f975   Thumb Code    12  lv_obj_pos.o(.text)
    lv_obj_get_style_y                       0x0800f981   Thumb Code    12  lv_obj_pos.o(.text)
    lv_obj_get_style_align                   0x0800f98d   Thumb Code    12  lv_obj_pos.o(.text)
    lv_obj_get_style_pad_top                 0x0800f999   Thumb Code    12  lv_obj_pos.o(.text)
    lv_obj_get_style_pad_bottom              0x0800f9a5   Thumb Code    12  lv_obj_pos.o(.text)
    lv_obj_get_style_pad_left                0x0800f9b1   Thumb Code    12  lv_obj_pos.o(.text)
    lv_obj_get_style_pad_right               0x0800f9bd   Thumb Code    12  lv_obj_pos.o(.text)
    lv_obj_get_style_border_width            0x0800f9c9   Thumb Code    12  lv_obj_pos.o(.text)
    lv_obj_get_style_layout                  0x0800f9d5   Thumb Code    12  lv_obj_pos.o(.text)
    lv_obj_get_style_base_dir                0x0800f9e1   Thumb Code    12  lv_obj_pos.o(.text)
    .text                                    0x0800f9ec   Section        0  lv_obj_scroll.o(.text)
    scroll_y_anim                            0x0800fd0d   Thumb Code    22  lv_obj_scroll.o(.text)
    scroll_x_anim                            0x0800fd23   Thumb Code    22  lv_obj_scroll.o(.text)
    scroll_anim_ready_cb                     0x0800fd6f   Thumb Code    10  lv_obj_scroll.o(.text)
    scroll_area_into_view                    0x0800ffdf   Thumb Code   640  lv_obj_scroll.o(.text)
    lv_obj_get_style_pad_top                 0x08010a21   Thumb Code    12  lv_obj_scroll.o(.text)
    lv_obj_get_style_pad_bottom              0x08010a2d   Thumb Code    12  lv_obj_scroll.o(.text)
    lv_obj_get_style_pad_left                0x08010a39   Thumb Code    12  lv_obj_scroll.o(.text)
    lv_obj_get_style_pad_right               0x08010a45   Thumb Code    12  lv_obj_scroll.o(.text)
    lv_obj_get_style_border_width            0x08010a51   Thumb Code    12  lv_obj_scroll.o(.text)
    lv_obj_get_style_base_dir                0x08010a5d   Thumb Code    12  lv_obj_scroll.o(.text)
    .text                                    0x08010a68   Section        0  lv_obj_style.o(.text)
    get_prop_core                            0x08010a73   Thumb Code   236  lv_obj_style.o(.text)
    refresh_children_style                   0x08010bf5   Thumb Code    62  lv_obj_style.o(.text)
    trans_del                                0x08010d7d   Thumb Code   164  lv_obj_style.o(.text)
    report_style_change_core                 0x08010fc3   Thumb Code    94  lv_obj_style.o(.text)
    get_local_style                          0x0801105b   Thumb Code   202  lv_obj_style.o(.text)
    trans_anim_ready_cb                      0x08011209   Thumb Code   160  lv_obj_style.o(.text)
    get_trans_style                          0x080112a9   Thumb Code   168  lv_obj_style.o(.text)
    trans_anim_start_cb                      0x08011351   Thumb Code    64  lv_obj_style.o(.text)
    trans_anim_cb                            0x08011391   Thumb Code   332  lv_obj_style.o(.text)
    fade_in_anim_ready                       0x0801182d   Thumb Code     8  lv_obj_style.o(.text)
    fade_anim_cb                             0x08011835   Thumb Code     8  lv_obj_style.o(.text)
    lv_style_prop_has_flag                   0x08011935   Thumb Code    16  lv_obj_style.o(.text)
    lv_obj_get_style_opa                     0x08011945   Thumb Code    12  lv_obj_style.o(.text)
    .text                                    0x08011950   Section        0  lv_obj_style_gen.o(.text)
    .text                                    0x08011d30   Section        0  lv_obj_tree.o(.text)
    obj_del_core                             0x08011de1   Thumb Code   294  lv_obj_tree.o(.text)
    lv_obj_del_async_cb                      0x08011fc5   Thumb Code     2  lv_obj_tree.o(.text)
    walk_core                                0x080121c3   Thumb Code   108  lv_obj_tree.o(.text)
    .text                                    0x08012230   Section        0  lv_refr.o(.text)
    lv_color_make                            0x08012231   Thumb Code    48  lv_refr.o(.text)
    call_flush_cb                            0x08012279   Thumb Code    50  lv_refr.o(.text)
    draw_buf_rotate                          0x080122ab   Thumb Code   540  lv_refr.o(.text)
    draw_buf_flush                           0x080124c7   Thumb Code   196  lv_refr.o(.text)
    refr_obj                                 0x08012677   Thumb Code   546  lv_refr.o(.text)
    refr_obj_and_children                    0x08012899   Thumb Code   118  lv_refr.o(.text)
    lv_refr_get_top_obj                      0x0801290f   Thumb Code   120  lv_refr.o(.text)
    refr_area_part                           0x08012987   Thumb Code   386  lv_refr.o(.text)
    refr_area                                0x08012b09   Thumb Code   340  lv_refr.o(.text)
    refr_invalid_areas                       0x08012c5d   Thumb Code   178  lv_refr.o(.text)
    refr_sync_areas                          0x08012d0f   Thumb Code   288  lv_refr.o(.text)
    lv_refr_join_area                        0x08012e2f   Thumb Code   186  lv_refr.o(.text)
    lv_area_copy                             0x080132b3   Thumb Code    18  lv_refr.o(.text)
    lv_area_get_width                        0x080132c5   Thumb Code    12  lv_refr.o(.text)
    lv_area_get_height                       0x080132d1   Thumb Code    12  lv_refr.o(.text)
    lv_color_white                           0x080132dd   Thumb Code    20  lv_refr.o(.text)
    lv_color_black                           0x080132f1   Thumb Code    20  lv_refr.o(.text)
    lv_layer_sys                             0x08013305   Thumb Code    14  lv_refr.o(.text)
    draw_buf_rotate_90_sqr                   0x08013313   Thumb Code   128  lv_refr.o(.text)
    draw_buf_rotate_180                      0x08013393   Thumb Code   104  lv_refr.o(.text)
    layer_alpha_test                         0x080133fb   Thumb Code   102  lv_refr.o(.text)
    layer_get_area                           0x08013461   Thumb Code   204  lv_refr.o(.text)
    get_max_row                              0x0801352d   Thumb Code    98  lv_refr.o(.text)
    draw_buf_rotate4                         0x0801358f   Thumb Code    20  lv_refr.o(.text)
    .text                                    0x080135a8   Section        0  lv_theme.o(.text)
    apply_theme                              0x08013653   Thumb Code    32  lv_theme.o(.text)
    .text                                    0x0801367c   Section        0  lv_draw.o(.text)
    .text                                    0x08013688   Section        0  lv_draw_arc.o(.text)
    .text                                    0x08013a98   Section        0  lv_draw_img.o(.text)
    lv_color_make                            0x08013a99   Thumb Code    48  lv_draw_img.o(.text)
    show_error                               0x08013af9   Thumb Code    78  lv_draw_img.o(.text)
    decode_and_draw                          0x08013b87   Thumb Code   506  lv_draw_img.o(.text)
    lv_area_copy                             0x08013e23   Thumb Code    18  lv_draw_img.o(.text)
    .text                                    0x08013e3c   Section        0  lv_draw_label.o(.text)
    lv_color_make                            0x08013e3d   Thumb Code    48  lv_draw_label.o(.text)
    hex_char_to_num                          0x08013ebd   Thumb Code    64  lv_draw_label.o(.text)
    lv_area_get_width                        0x08014435   Thumb Code    12  lv_draw_label.o(.text)
    lv_color_black                           0x08014441   Thumb Code    20  lv_draw_label.o(.text)
    .text                                    0x08014454   Section        0  lv_draw_layer.o(.text)
    .text                                    0x08014506   Section        0  lv_draw_line.o(.text)
    .text                                    0x08014560   Section        0  lv_draw_mask.o(.text)
    line_mask_steep                          0x0801472f   Thumb Code   470  lv_draw_mask.o(.text)
    line_mask_flat                           0x08014905   Thumb Code   342  lv_draw_mask.o(.text)
    lv_draw_mask_line                        0x08014a5b   Thumb Code   166  lv_draw_mask.o(.text)
    lv_draw_mask_angle                       0x08014c57   Thumb Code   640  lv_draw_mask.o(.text)
    circ_calc_aa4                            0x08014f85   Thumb Code   710  lv_draw_mask.o(.text)
    lv_draw_mask_radius                      0x0801524b   Thumb Code   640  lv_draw_mask.o(.text)
    lv_draw_mask_fade                        0x080155e5   Thumb Code   180  lv_draw_mask.o(.text)
    lv_draw_mask_map                         0x080156c1   Thumb Code   126  lv_draw_mask.o(.text)
    lv_draw_mask_polygon                     0x08015757   Thumb Code   516  lv_draw_mask.o(.text)
    lv_area_copy                             0x080159e5   Thumb Code    18  lv_draw_mask.o(.text)
    mask_mix                                 0x080159f7   Thumb Code    30  lv_draw_mask.o(.text)
    circ_cont                                0x08015a15   Thumb Code    20  lv_draw_mask.o(.text)
    .text                                    0x08015a2c   Section        0  lv_draw_rect.o(.text)
    lv_color_make                            0x08015a2d   Thumb Code    48  lv_draw_rect.o(.text)
    lv_color_white                           0x08015af5   Thumb Code    20  lv_draw_rect.o(.text)
    lv_color_black                           0x08015b09   Thumb Code    20  lv_draw_rect.o(.text)
    .text                                    0x08015b20   Section        0  lv_draw_transform.o(.text)
    .text                                    0x08015b58   Section        0  lv_img_buf.o(.text)
    lv_memcpy_small                          0x080161b9   Thumb Code    22  lv_img_buf.o(.text)
    .text                                    0x080161d0   Section        0  lv_img_cache.o(.text)
    .text                                    0x08016228   Section        0  lv_img_decoder.o(.text)
    lv_color_make                            0x08016229   Thumb Code    48  lv_img_decoder.o(.text)
    lv_img_decoder_built_in_line_indexed     0x0801628f   Thumb Code   324  lv_img_decoder.o(.text)
    lv_img_decoder_built_in_line_alpha       0x080163d3   Thumb Code   366  lv_img_decoder.o(.text)
    .text                                    0x08016a40   Section        0  lv_draw_sw.o(.text)
    .text                                    0x08016b38   Section        0  lv_draw_sw_arc.o(.text)
    get_rounded_area                         0x08016b39   Thumb Code   118  lv_draw_sw_arc.o(.text)
    draw_quarter_3                           0x08016baf   Thumb Code   410  lv_draw_sw_arc.o(.text)
    draw_quarter_2                           0x08016d49   Thumb Code   476  lv_draw_sw_arc.o(.text)
    draw_quarter_1                           0x08016f25   Thumb Code   414  lv_draw_sw_arc.o(.text)
    draw_quarter_0                           0x080170c3   Thumb Code   402  lv_draw_sw_arc.o(.text)
    .text                                    0x080175a8   Section        0  lv_draw_sw_blend.o(.text)
    lv_color_mix                             0x080175a9   Thumb Code    46  lv_draw_sw_blend.o(.text)
    map_blended                              0x08017603   Thumb Code   360  lv_draw_sw_blend.o(.text)
    fill_blended                             0x0801776b   Thumb Code   300  lv_draw_sw_blend.o(.text)
    map_normal                               0x08017897   Thumb Code   754  lv_draw_sw_blend.o(.text)
    fill_normal                              0x08017b89   Thumb Code   802  lv_draw_sw_blend.o(.text)
    lv_area_get_width                        0x0801808b   Thumb Code    12  lv_draw_sw_blend.o(.text)
    lv_area_get_height                       0x08018097   Thumb Code    12  lv_draw_sw_blend.o(.text)
    color_blend_true_color_multiply          0x080180a3   Thumb Code   102  lv_draw_sw_blend.o(.text)
    color_blend_true_color_subtractive       0x08018109   Thumb Code   114  lv_draw_sw_blend.o(.text)
    color_blend_true_color_additive          0x0801817b   Thumb Code   114  lv_draw_sw_blend.o(.text)
    map_set_px                               0x080181ed   Thumb Code   198  lv_draw_sw_blend.o(.text)
    fill_set_px                              0x080182b3   Thumb Code   176  lv_draw_sw_blend.o(.text)
    .text                                    0x08018364   Section        0  lv_draw_sw_gradient.o(.text)
    lv_color_to32                            0x08018365   Thumb Code    70  lv_draw_sw_gradient.o(.text)
    next_in_cache                            0x080183ab   Thumb Code    38  lv_draw_sw_gradient.o(.text)
    iterate_cache                            0x080183d1   Thumb Code    54  lv_draw_sw_gradient.o(.text)
    find_oldest_item_life                    0x08018407   Thumb Code    18  lv_draw_sw_gradient.o(.text)
    kill_oldest_item                         0x08018419   Thumb Code   100  lv_draw_sw_gradient.o(.text)
    find_item                                0x0801847d   Thumb Code    16  lv_draw_sw_gradient.o(.text)
    allocate_item                            0x0801848d   Thumb Code   204  lv_draw_sw_gradient.o(.text)
    get_cache_item_size                      0x0801873f   Thumb Code    18  lv_draw_sw_gradient.o(.text)
    .text                                    0x08018764   Section        0  lv_draw_sw_img.o(.text)
    convert_cb                               0x08018765   Thumb Code   406  lv_draw_sw_img.o(.text)
    lv_area_copy                             0x08018c1b   Thumb Code    18  lv_draw_sw_img.o(.text)
    lv_area_get_width                        0x08018c2d   Thumb Code    12  lv_draw_sw_img.o(.text)
    lv_area_get_height                       0x08018c39   Thumb Code    12  lv_draw_sw_img.o(.text)
    .text                                    0x08018c44   Section        0  lv_draw_sw_layer.o(.text)
    lv_area_get_width                        0x08018e0d   Thumb Code    12  lv_draw_sw_layer.o(.text)
    .text                                    0x08018e18   Section        0  lv_draw_sw_letter.o(.text)
    draw_letter_normal                       0x08018e19   Thumb Code   698  lv_draw_sw_letter.o(.text)
    .text                                    0x080191f4   Section        0  lv_draw_sw_line.o(.text)
    draw_line_skew                           0x080191f5   Thumb Code   856  lv_draw_sw_line.o(.text)
    draw_line_ver                            0x0801954d   Thumb Code   346  lv_draw_sw_line.o(.text)
    draw_line_hor                            0x080196a7   Thumb Code   376  lv_draw_sw_line.o(.text)
    .text                                    0x080199c0   Section        0  lv_draw_sw_polygon.o(.text)
    .text                                    0x08019c3c   Section        0  lv_draw_sw_rect.o(.text)
    draw_border_simple                       0x08019c3d   Thumb Code   266  lv_draw_sw_rect.o(.text)
    draw_border                              0x0801a1fb   Thumb Code   236  lv_draw_sw_rect.o(.text)
    draw_bg_img                              0x0801a2e7   Thumb Code   482  lv_draw_sw_rect.o(.text)
    draw_bg                                  0x0801a4c9   Thumb Code   924  lv_draw_sw_rect.o(.text)
    shadow_blur_corner                       0x0801a865   Thumb Code   308  lv_draw_sw_rect.o(.text)
    shadow_draw_corner_buf                   0x0801a999   Thumb Code   386  lv_draw_sw_rect.o(.text)
    draw_shadow                              0x0801ab1b   Thumb Code  2954  lv_draw_sw_rect.o(.text)
    lv_area_copy                             0x0801b6f7   Thumb Code    18  lv_draw_sw_rect.o(.text)
    lv_area_get_width                        0x0801b709   Thumb Code    12  lv_draw_sw_rect.o(.text)
    lv_area_get_height                       0x0801b715   Thumb Code    12  lv_draw_sw_rect.o(.text)
    draw_outline                             0x0801b721   Thumb Code   198  lv_draw_sw_rect.o(.text)
    .text                                    0x0801b7e8   Section        0  lv_draw_sw_transform.o(.text)
    lv_color_mix                             0x0801b7e9   Thumb Code    46  lv_draw_sw_transform.o(.text)
    argb_and_rgb_aa                          0x0801b817   Thumb Code   720  lv_draw_sw_transform.o(.text)
    transform_point_upscaled                 0x0801bae7   Thumb Code   146  lv_draw_sw_transform.o(.text)
    rgb_no_aa                                0x0801be01   Thumb Code   140  lv_draw_sw_transform.o(.text)
    .text                                    0x0801be8c   Section        0  lv_extra.o(.text)
    .text                                    0x0801be9c   Section        0  lv_flex.o(.text)
    get_next_item                            0x0801be9d   Thumb Code    38  lv_flex.o(.text)
    place_content                            0x0801bec3   Thumb Code   124  lv_flex.o(.text)
    children_repos                           0x0801bf3f   Thumb Code   948  lv_flex.o(.text)
    find_track_end                           0x0801c2f3   Thumb Code   560  lv_flex.o(.text)
    flex_update                              0x0801c523   Thumb Code   738  lv_flex.o(.text)
    lv_area_get_width                        0x0801c90f   Thumb Code    12  lv_flex.o(.text)
    lv_area_get_height                       0x0801c91b   Thumb Code    12  lv_flex.o(.text)
    lv_obj_get_style_width                   0x0801c927   Thumb Code    12  lv_flex.o(.text)
    lv_obj_get_style_height                  0x0801c933   Thumb Code    12  lv_flex.o(.text)
    lv_obj_get_style_pad_row                 0x0801c93f   Thumb Code    12  lv_flex.o(.text)
    lv_obj_get_style_pad_column              0x0801c94b   Thumb Code    12  lv_flex.o(.text)
    lv_obj_get_style_base_dir                0x0801c957   Thumb Code    12  lv_flex.o(.text)
    lv_obj_get_style_flex_grow               0x0801c963   Thumb Code    14  lv_flex.o(.text)
    .text                                    0x0801c978   Section        0  lv_grid.o(.text)
    item_repos                               0x0801c979   Thumb Code   714  lv_grid.o(.text)
    grid_align                               0x0801cc43   Thumb Code   254  lv_grid.o(.text)
    calc_cols                                0x0801cd41   Thumb Code   348  lv_grid.o(.text)
    calc_rows                                0x0801ce9d   Thumb Code   334  lv_grid.o(.text)
    calc                                     0x0801cfeb   Thumb Code   248  lv_grid.o(.text)
    grid_update                              0x0801d0e3   Thumb Code   226  lv_grid.o(.text)
    lv_obj_get_style_width                   0x0801d399   Thumb Code    12  lv_grid.o(.text)
    lv_obj_get_style_height                  0x0801d3a5   Thumb Code    12  lv_grid.o(.text)
    lv_obj_get_style_pad_row                 0x0801d3b1   Thumb Code    12  lv_grid.o(.text)
    lv_obj_get_style_pad_column              0x0801d3bd   Thumb Code    12  lv_grid.o(.text)
    lv_obj_get_style_base_dir                0x0801d3c9   Thumb Code    12  lv_grid.o(.text)
    get_col_dsc                              0x0801d3d5   Thumb Code    10  lv_grid.o(.text)
    get_row_dsc                              0x0801d3df   Thumb Code    10  lv_grid.o(.text)
    get_col_pos                              0x0801d3e9   Thumb Code    16  lv_grid.o(.text)
    get_row_pos                              0x0801d3f9   Thumb Code    16  lv_grid.o(.text)
    get_col_span                             0x0801d409   Thumb Code    16  lv_grid.o(.text)
    get_row_span                             0x0801d419   Thumb Code    16  lv_grid.o(.text)
    count_tracks                             0x0801d429   Thumb Code    22  lv_grid.o(.text)
    .text                                    0x0801d448   Section        0  lv_theme_default.o(.text)
    lv_color_mix                             0x0801d449   Thumb Code    46  lv_theme_default.o(.text)
    lv_color_white                           0x0801d477   Thumb Code    40  lv_theme_default.o(.text)
    lv_disp_dpx                              0x0801d49f   Thumb Code    54  lv_theme_default.o(.text)
    dark_color_filter_cb                     0x0801d4d5   Thumb Code    18  lv_theme_default.o(.text)
    grey_filter_cb                           0x0801d4e7   Thumb Code    50  lv_theme_default.o(.text)
    style_init                               0x0801d519   Thumb Code  5468  lv_theme_default.o(.text)
    theme_apply                              0x0801ea75   Thumb Code  3446  lv_theme_default.o(.text)
    lv_color_hex                             0x0801f899   Thumb Code    34  lv_theme_default.o(.text)
    lv_style_set_size                        0x0801f8bb   Thumb Code    22  lv_theme_default.o(.text)
    lv_style_set_pad_all                     0x0801f8d1   Thumb Code    38  lv_theme_default.o(.text)
    lv_style_set_pad_hor                     0x0801f8f7   Thumb Code    22  lv_theme_default.o(.text)
    lv_style_set_pad_ver                     0x0801f90d   Thumb Code    22  lv_theme_default.o(.text)
    lv_style_set_pad_gap                     0x0801f923   Thumb Code    22  lv_theme_default.o(.text)
    style_init_reset                         0x0801f939   Thumb Code    14  lv_theme_default.o(.text)
    .text                                    0x0801f970   Section        0  lv_calendar.o(.text)
    get_day_of_week                          0x0801f9a1   Thumb Code    72  lv_calendar.o(.text)
    highlight_update                         0x0801f9e9   Thumb Code   154  lv_calendar.o(.text)
    get_month_length                         0x0801fa99   Thumb Code    88  lv_calendar.o(.text)
    draw_part_begin_event_cb                 0x0801fc85   Thumb Code   192  lv_calendar.o(.text)
    lv_calendar_constructor                  0x0801fd45   Thumb Code   240  lv_calendar.o(.text)
    .text                                    0x0801fe44   Section        0  lv_calendar_header_arrow.o(.text)
    value_changed_event_cb                   0x0801fe59   Thumb Code    52  lv_calendar_header_arrow.o(.text)
    month_event_cb                           0x0801fe8d   Thumb Code   132  lv_calendar_header_arrow.o(.text)
    my_constructor                           0x0801ff11   Thumb Code   204  lv_calendar_header_arrow.o(.text)
    .text                                    0x0801fffc   Section        0  lv_calendar_header_dropdown.o(.text)
    value_changed_event_cb                   0x08020011   Thumb Code    64  lv_calendar_header_dropdown.o(.text)
    month_event_cb                           0x08020051   Thumb Code    54  lv_calendar_header_dropdown.o(.text)
    year_event_cb                            0x08020087   Thumb Code    56  lv_calendar_header_dropdown.o(.text)
    my_constructor                           0x080200bf   Thumb Code   126  lv_calendar_header_dropdown.o(.text)
    .text                                    0x08020150   Section        0  lv_chart.o(.text)
    new_points_alloc                         0x080201ed   Thumb Code   180  lv_chart.o(.text)
    invalidate_point                         0x080207bf   Thumb Code   376  lv_chart.o(.text)
    lv_chart_constructor                     0x08020a6b   Thumb Code    88  lv_chart.o(.text)
    lv_chart_destructor                      0x08020ac3   Thumb Code    96  lv_chart.o(.text)
    draw_cursors                             0x08020b23   Thumb Code   548  lv_chart.o(.text)
    draw_series_scatter                      0x08020d47   Thumb Code   934  lv_chart.o(.text)
    draw_series_bar                          0x080210ed   Thumb Code   566  lv_chart.o(.text)
    draw_series_line                         0x08021323   Thumb Code  1056  lv_chart.o(.text)
    draw_x_ticks                             0x08021743   Thumb Code   798  lv_chart.o(.text)
    draw_y_ticks                             0x08021a61   Thumb Code   698  lv_chart.o(.text)
    draw_div_lines                           0x08021d1b   Thumb Code   596  lv_chart.o(.text)
    lv_chart_event                           0x08021f6f   Thumb Code   510  lv_chart.o(.text)
    lv_obj_get_style_width                   0x0802216d   Thumb Code    12  lv_chart.o(.text)
    lv_obj_get_style_height                  0x08022179   Thumb Code    16  lv_chart.o(.text)
    lv_obj_get_style_pad_top                 0x08022189   Thumb Code    12  lv_chart.o(.text)
    lv_obj_get_style_pad_bottom              0x08022195   Thumb Code    12  lv_chart.o(.text)
    lv_obj_get_style_pad_left                0x080221a1   Thumb Code    12  lv_chart.o(.text)
    lv_obj_get_style_pad_right               0x080221ad   Thumb Code    12  lv_chart.o(.text)
    lv_obj_get_style_pad_column              0x080221b9   Thumb Code    12  lv_chart.o(.text)
    lv_obj_get_style_border_width            0x080221c5   Thumb Code    12  lv_chart.o(.text)
    .text                                    0x080221d0   Section        0  lv_colorwheel.o(.text)
    get_knob_area                            0x080221e9   Thumb Code   128  lv_colorwheel.o(.text)
    refr_knob_pos                            0x08022269   Thumb Code   138  lv_colorwheel.o(.text)
    lv_colorwheel_constructor                0x08022413   Thumb Code    70  lv_colorwheel.o(.text)
    fast_hsv2rgb                             0x08022459   Thumb Code   118  lv_colorwheel.o(.text)
    angle_to_mode_color_fast                 0x080224cf   Thumb Code   314  lv_colorwheel.o(.text)
    draw_disc_grad                           0x08022609   Thumb Code   374  lv_colorwheel.o(.text)
    lv_colorwheel_event                      0x0802277f   Thumb Code  1030  lv_colorwheel.o(.text)
    lv_trigo_cos                             0x08022b85   Thumb Code     8  lv_colorwheel.o(.text)
    lv_obj_get_style_pad_top                 0x08022b8d   Thumb Code    12  lv_colorwheel.o(.text)
    lv_obj_get_style_pad_bottom              0x08022b99   Thumb Code    12  lv_colorwheel.o(.text)
    lv_obj_get_style_pad_left                0x08022ba5   Thumb Code    12  lv_colorwheel.o(.text)
    lv_obj_get_style_pad_right               0x08022bb1   Thumb Code    12  lv_colorwheel.o(.text)
    lv_obj_get_style_arc_width               0x08022bbd   Thumb Code    12  lv_colorwheel.o(.text)
    invalidate_knob                          0x08022bc9   Thumb Code    22  lv_colorwheel.o(.text)
    double_click_reset                       0x08022bdf   Thumb Code   106  lv_colorwheel.o(.text)
    .text                                    0x08022c48   Section        0  lv_keyboard.o(.text)
    lv_keyboard_update_ctrl_map              0x08022c83   Thumb Code   108  lv_keyboard.o(.text)
    lv_keyboard_constructor                  0x08022f09   Thumb Code    68  lv_keyboard.o(.text)
    lv_keyboard_update_map                   0x08022f4d   Thumb Code    30  lv_keyboard.o(.text)
    .text                                    0x08022fa8   Section        0  lv_led.o(.text)
    lv_color_mix                             0x08022fa9   Thumb Code    46  lv_led.o(.text)
    lv_color_brightness                      0x08022fd7   Thumb Code    92  lv_led.o(.text)
    lv_color_black                           0x08023033   Thumb Code    38  lv_led.o(.text)
    lv_led_constructor                       0x080230b5   Thumb Code    26  lv_led.o(.text)
    lv_led_event                             0x080230cf   Thumb Code   568  lv_led.o(.text)
    .text                                    0x08023310   Section        0  lv_menu.o(.text)
    lv_menu_refr_main_header_mode            0x0802339f   Thumb Code   114  lv_menu.o(.text)
    lv_menu_refr                             0x080234fb   Thumb Code    60  lv_menu.o(.text)
    lv_menu_refr_sidebar_header_mode         0x08023537   Thumb Code   108  lv_menu.o(.text)
    lv_menu_back_event_cb                    0x080235bf   Thumb Code   146  lv_menu.o(.text)
    lv_menu_obj_del_event_cb                 0x080237c7   Thumb Code    14  lv_menu.o(.text)
    lv_menu_load_page_event_cb               0x080237d5   Thumb Code   110  lv_menu.o(.text)
    lv_menu_value_changed_event_cb           0x080238c3   Thumb Code    92  lv_menu.o(.text)
    lv_menu_constructor                      0x0802391f   Thumb Code   300  lv_menu.o(.text)
    lv_menu_destructor                       0x08023a4b   Thumb Code     8  lv_menu.o(.text)
    lv_menu_page_constructor                 0x08023a53   Thumb Code    52  lv_menu.o(.text)
    lv_menu_page_destructor                  0x08023a87   Thumb Code    20  lv_menu.o(.text)
    lv_menu_cont_constructor                 0x08023a9b   Thumb Code    36  lv_menu.o(.text)
    lv_menu_section_constructor              0x08023abf   Thumb Code    24  lv_menu.o(.text)
    .text                                    0x08023af4   Section        0  lv_meter.o(.text)
    inv_line                                 0x08023c8f   Thumb Code   366  lv_meter.o(.text)
    inv_arc                                  0x08023dfd   Thumb Code   168  lv_meter.o(.text)
    lv_meter_constructor                     0x08023f7d   Thumb Code    28  lv_meter.o(.text)
    lv_meter_destructor                      0x08023f99   Thumb Code    24  lv_meter.o(.text)
    draw_needles                             0x08023fb1   Thumb Code   492  lv_meter.o(.text)
    draw_ticks_and_labels                    0x0802419d   Thumb Code  1008  lv_meter.o(.text)
    draw_arcs                                0x0802458d   Thumb Code   280  lv_meter.o(.text)
    lv_meter_event                           0x080246a5   Thumb Code   204  lv_meter.o(.text)
    lv_trigo_cos                             0x08024771   Thumb Code     8  lv_meter.o(.text)
    lv_area_get_width                        0x08024779   Thumb Code    12  lv_meter.o(.text)
    lv_obj_get_style_arc_rounded             0x08024785   Thumb Code    16  lv_meter.o(.text)
    .text                                    0x0802479c   Section        0  lv_spinbox.o(.text)
    lv_spinbox_updatevalue                   0x080247b1   Thumb Code   270  lv_spinbox.o(.text)
    lv_spinbox_constructor                   0x08024a79   Thumb Code    74  lv_spinbox.o(.text)
    lv_spinbox_event                         0x08024ac3   Thumb Code   352  lv_spinbox.o(.text)
    .text                                    0x08024c24   Section        0  lv_spinner.o(.text)
    arc_anim_start_angle                     0x08024c3f   Thumb Code     6  lv_spinner.o(.text)
    arc_anim_end_angle                       0x08024c45   Thumb Code     6  lv_spinner.o(.text)
    lv_spinner_constructor                   0x08024c4b   Thumb Code   108  lv_spinner.o(.text)
    .text                                    0x08024ccc   Section        0  lv_tabview.o(.text)
    cont_scroll_end_event_cb                 0x08024ef1   Thumb Code   180  lv_tabview.o(.text)
    btns_value_changed_event_cb              0x08024fa5   Thumb Code    32  lv_tabview.o(.text)
    lv_tabview_constructor                   0x08024fc5   Thumb Code   328  lv_tabview.o(.text)
    lv_tabview_destructor                    0x0802510d   Thumb Code    92  lv_tabview.o(.text)
    lv_tabview_event                         0x08025169   Thumb Code    44  lv_tabview.o(.text)
    lv_memcpy_small                          0x08025195   Thumb Code    22  lv_tabview.o(.text)
    lv_obj_get_style_base_dir                0x080251ab   Thumb Code    12  lv_tabview.o(.text)
    .text                                    0x080251bc   Section        0  lv_tileview.o(.text)
    tileview_event_cb                        0x0802528f   Thumb Code   182  lv_tileview.o(.text)
    lv_tileview_constructor                  0x08025345   Thumb Code    56  lv_tileview.o(.text)
    lv_tileview_tile_constructor             0x0802537d   Thumb Code    94  lv_tileview.o(.text)
    .text                                    0x080253e8   Section        0  lv_win.o(.text)
    lv_win_constructor                       0x0802546d   Thumb Code   114  lv_win.o(.text)
    .text                                    0x080254e8   Section        0  lv_font.o(.text)
    .text                                    0x080255b0   Section        0  lv_font_fmt_txt.o(.text)
    unicode_list_compare                     0x080255b1   Thumb Code     8  lv_font_fmt_txt.o(.text)
    get_glyph_dsc_id                         0x080255b9   Thumb Code   288  lv_font_fmt_txt.o(.text)
    kern_pair_16_compare                     0x08025707   Thumb Code    20  lv_font_fmt_txt.o(.text)
    kern_pair_8_compare                      0x0802571b   Thumb Code    20  lv_font_fmt_txt.o(.text)
    get_kern_value                           0x080257d7   Thumb Code   132  lv_font_fmt_txt.o(.text)
    .text                                    0x08025868   Section        0  lv_hal_disp.o(.text)
    lv_color_mix                             0x08025869   Thumb Code    46  lv_hal_disp.o(.text)
    invalidate_layout_cb                     0x08025a49   Thumb Code    10  lv_hal_disp.o(.text)
    set_px_alpha_generic                     0x08025d8f   Thumb Code   162  lv_hal_disp.o(.text)
    set_px_cb_alpha8                         0x08025e31   Thumb Code    44  lv_hal_disp.o(.text)
    set_px_cb_alpha4                         0x08025e5d   Thumb Code    44  lv_hal_disp.o(.text)
    set_px_cb_alpha2                         0x08025e89   Thumb Code    44  lv_hal_disp.o(.text)
    set_px_cb_alpha1                         0x08025eb5   Thumb Code    44  lv_hal_disp.o(.text)
    set_px_true_color_alpha                  0x08025ee1   Thumb Code    68  lv_hal_disp.o(.text)
    lv_color_mix_with_alpha                  0x08025f57   Thumb Code   188  lv_hal_disp.o(.text)
    .text                                    0x08026030   Section        0  lv_hal_indev.o(.text)
    .text                                    0x0802616c   Section        0  lv_hal_tick.o(.text)
    .text                                    0x0802619c   Section        0  lv_anim.o(.text)
    anim_timer                               0x0802619d   Thumb Code   194  lv_anim.o(.text)
    anim_mark_list_change                    0x080265f3   Thumb Code    36  lv_anim.o(.text)
    anim_ready_handler                       0x08026617   Thumb Code   132  lv_anim.o(.text)
    .text                                    0x080266a4   Section        0  lv_area.o(.text)
    lv_point_within_circle                   0x08026795   Thumb Code    56  lv_area.o(.text)
    lv_area_get_width                        0x08026f51   Thumb Code    12  lv_area.o(.text)
    lv_area_get_height                       0x08026f5d   Thumb Code    12  lv_area.o(.text)
    .text                                    0x08026f6c   Section        0  lv_async.o(.text)
    lv_async_timer_cb                        0x08026f6d   Thumb Code    20  lv_async.o(.text)
    .text                                    0x08027008   Section        0  lv_color.o(.text)
    lv_color_mix                             0x08027009   Thumb Code    46  lv_color.o(.text)
    lv_color_make                            0x08027037   Thumb Code    48  lv_color.o(.text)
    lv_color_black                           0x08027377   Thumb Code    20  lv_color.o(.text)
    .text                                    0x08027394   Section        0  lv_fs.o(.text)
    lv_fs_read_cached                        0x08027491   Thumb Code   310  lv_fs.o(.text)
    lv_fs_get_real_path                      0x0802788f   Thumb Code    12  lv_fs.o(.text)
    .text                                    0x080278a4   Section        0  lv_gc.o(.text)
    .text                                    0x08027964   Section        0  lv_ll.o(.text)
    node_set_prev                            0x08027bf3   Thumb Code    16  lv_ll.o(.text)
    node_set_next                            0x08027c03   Thumb Code    18  lv_ll.o(.text)
    .text                                    0x08027c14   Section        0  lv_math.o(.text)
    .text                                    0x08027e00   Section        0  lv_mem.o(.text)
    lv_mem_walker                            0x08027ec7   Thumb Code    32  lv_mem.o(.text)
    .text                                    0x08028264   Section        0  lv_printf.o(.text)
    _atoi                                    0x08028265   Thumb Code    46  lv_printf.o(.text)
    _ntoa_format                             0x08028293   Thumb Code   290  lv_printf.o(.text)
    _ntoa_long                               0x080283b5   Thumb Code   128  lv_printf.o(.text)
    _ntoa_long_long                          0x08028435   Thumb Code   126  lv_printf.o(.text)
    _vsnprintf                               0x080284b3   Thumb Code  1024  lv_printf.o(.text)
    _out_buffer                              0x080288df   Thumb Code     8  lv_printf.o(.text)
    _out_null                                0x080288e7   Thumb Code     2  lv_printf.o(.text)
    _is_digit                                0x080288e9   Thumb Code    14  lv_printf.o(.text)
    .text                                    0x08028900   Section        0  lv_style.o(.text)
    lv_color_make                            0x08028901   Thumb Code    48  lv_style.o(.text)
    lv_style_set_prop_helper                 0x08028b4d   Thumb Code     6  lv_style.o(.text)
    lv_style_set_prop_internal               0x08028b5f   Thumb Code   242  lv_style.o(.text)
    lv_style_set_prop_meta_helper            0x08028c55   Thumb Code     4  lv_style.o(.text)
    lv_style_get_prop_inlined                0x08028ccf   Thumb Code   160  lv_style.o(.text)
    .text                                    0x08028d8c   Section        0  lv_style_gen.o(.text)
    .text                                    0x080290c0   Section        0  lv_timer.o(.text)
    lv_timer_time_remaining                  0x080292af   Thumb Code    24  lv_timer.o(.text)
    .text                                    0x080292d4   Section        0  lv_tlsf.o(.text)
    remove_free_block                        0x080292d5   Thumb Code    66  lv_tlsf.o(.text)
    block_insert                             0x08029317   Thumb Code   106  lv_tlsf.o(.text)
    block_split                              0x08029381   Thumb Code   106  lv_tlsf.o(.text)
    block_merge_next                         0x080293eb   Thumb Code    58  lv_tlsf.o(.text)
    block_locate_free                        0x08029425   Thumb Code   164  lv_tlsf.o(.text)
    block_prepare_used                       0x080294c9   Thumb Code    82  lv_tlsf.o(.text)
    integrity_walker                         0x0802951b   Thumb Code    44  lv_tlsf.o(.text)
    default_walker                           0x08029627   Thumb Code     2  lv_tlsf.o(.text)
    tlsf_ffs                                 0x080299b7   Thumb Code    16  lv_tlsf.o(.text)
    tlsf_fls                                 0x080299c7   Thumb Code    14  lv_tlsf.o(.text)
    block_is_last                            0x080299d5   Thumb Code    16  lv_tlsf.o(.text)
    block_next                               0x080299e5   Thumb Code    28  lv_tlsf.o(.text)
    block_link_next                          0x08029a01   Thumb Code    20  lv_tlsf.o(.text)
    block_mark_as_free                       0x08029a15   Thumb Code    26  lv_tlsf.o(.text)
    block_mark_as_used                       0x08029a2f   Thumb Code    26  lv_tlsf.o(.text)
    align_ptr                                0x08029a49   Thumb Code    16  lv_tlsf.o(.text)
    adjust_request_size                      0x08029a59   Thumb Code    44  lv_tlsf.o(.text)
    mapping_insert                           0x08029a85   Thumb Code    44  lv_tlsf.o(.text)
    block_remove                             0x08029ab1   Thumb Code    34  lv_tlsf.o(.text)
    block_can_split                          0x08029ad3   Thumb Code    20  lv_tlsf.o(.text)
    block_absorb                             0x08029ae7   Thumb Code    38  lv_tlsf.o(.text)
    .text                                    0x08029b0c   Section        0  lv_txt.o(.text)
    lv_txt_get_next_word                     0x08029be5   Thumb Code   310  lv_txt.o(.text)
    lv_txt_utf8_size                         0x08029f97   Thumb Code    50  lv_txt.o(.text)
    lv_txt_unicode_to_utf8                   0x08029fc9   Thumb Code   130  lv_txt.o(.text)
    lv_txt_utf8_conv_wc                      0x0802a04b   Thumb Code    74  lv_txt.o(.text)
    lv_txt_utf8_next                         0x0802a095   Thumb Code   138  lv_txt.o(.text)
    lv_txt_utf8_prev                         0x0802a11f   Thumb Code    66  lv_txt.o(.text)
    lv_txt_utf8_get_byte_id                  0x0802a161   Thumb Code    48  lv_txt.o(.text)
    lv_txt_utf8_get_char_id                  0x0802a191   Thumb Code    36  lv_txt.o(.text)
    lv_txt_utf8_get_length                   0x0802a1b5   Thumb Code    34  lv_txt.o(.text)
    lv_memcpy_small                          0x0802a1d7   Thumb Code    22  lv_txt.o(.text)
    .text                                    0x0802a1f0   Section        0  lv_utils.o(.text)
    .text                                    0x0802a238   Section        0  lv_arc.o(.text)
    knob_get_extra_size                      0x0802a24d   Thumb Code   136  lv_arc.o(.text)
    get_angle                                0x0802a2d5   Thumb Code   104  lv_arc.o(.text)
    get_knob_area                            0x0802a33d   Thumb Code   160  lv_arc.o(.text)
    get_center                               0x0802a3dd   Thumb Code   142  lv_arc.o(.text)
    inv_knob_area                            0x0802a46b   Thumb Code    54  lv_arc.o(.text)
    inv_arc_area                             0x0802a4a1   Thumb Code   160  lv_arc.o(.text)
    value_update                             0x0802a63b   Thumb Code   196  lv_arc.o(.text)
    lv_arc_constructor                       0x0802a9df   Thumb Code   108  lv_arc.o(.text)
    lv_arc_draw                              0x0802aa4b   Thumb Code   440  lv_arc.o(.text)
    lv_arc_angle_within_bg_bounds            0x0802ac03   Thumb Code   174  lv_arc.o(.text)
    lv_arc_event                             0x0802acb1   Thumb Code  1180  lv_arc.o(.text)
    lv_obj_get_style_pad_top                 0x0802b14d   Thumb Code    12  lv_arc.o(.text)
    lv_obj_get_style_pad_bottom              0x0802b159   Thumb Code    12  lv_arc.o(.text)
    lv_obj_get_style_pad_left                0x0802b165   Thumb Code    12  lv_arc.o(.text)
    lv_obj_get_style_pad_right               0x0802b171   Thumb Code    12  lv_arc.o(.text)
    lv_obj_get_style_shadow_ofs_x            0x0802b17d   Thumb Code    12  lv_arc.o(.text)
    lv_obj_get_style_shadow_ofs_y            0x0802b189   Thumb Code    12  lv_arc.o(.text)
    lv_obj_get_style_arc_width               0x0802b195   Thumb Code    12  lv_arc.o(.text)
    .text                                    0x0802b1a0   Section        0  lv_bar.o(.text)
    lv_bar_anim_ready                        0x0802b1b5   Thumb Code    42  lv_bar.o(.text)
    lv_bar_anim                              0x0802b1df   Thumb Code     8  lv_bar.o(.text)
    lv_bar_set_value_with_anim               0x0802b1e7   Thumb Code   120  lv_bar.o(.text)
    lv_bar_constructor                       0x0802b38f   Thumb Code    74  lv_bar.o(.text)
    lv_bar_destructor                        0x0802b3d9   Thumb Code    28  lv_bar.o(.text)
    draw_indic                               0x0802b3f5   Thumb Code  1234  lv_bar.o(.text)
    lv_bar_event                             0x0802b8c7   Thumb Code   202  lv_bar.o(.text)
    lv_area_copy                             0x0802b991   Thumb Code    18  lv_bar.o(.text)
    lv_area_get_width                        0x0802b9a3   Thumb Code    12  lv_bar.o(.text)
    lv_area_get_height                       0x0802b9af   Thumb Code    12  lv_bar.o(.text)
    lv_obj_get_style_pad_top                 0x0802b9bb   Thumb Code    12  lv_bar.o(.text)
    lv_obj_get_style_pad_bottom              0x0802b9c7   Thumb Code    12  lv_bar.o(.text)
    lv_obj_get_style_pad_left                0x0802b9d3   Thumb Code    12  lv_bar.o(.text)
    lv_obj_get_style_pad_right               0x0802b9df   Thumb Code    12  lv_bar.o(.text)
    lv_bar_init_anim                         0x0802b9eb   Thumb Code    14  lv_bar.o(.text)
    .text                                    0x0802b9fc   Section        0  lv_btn.o(.text)
    lv_btn_constructor                       0x0802ba11   Thumb Code    26  lv_btn.o(.text)
    .text                                    0x0802ba30   Section        0  lv_btnmatrix.o(.text)
    invalidate_button_area                   0x0802bc07   Thumb Code   198  lv_btnmatrix.o(.text)
    lv_btnmatrix_constructor                 0x0802beb1   Thumb Code    28  lv_btnmatrix.o(.text)
    lv_btnmatrix_destructor                  0x0802becd   Thumb Code    24  lv_btnmatrix.o(.text)
    draw_main                                0x0802bee5   Thumb Code   876  lv_btnmatrix.o(.text)
    get_button_from_point                    0x0802c251   Thumb Code   416  lv_btnmatrix.o(.text)
    lv_btnmatrix_event                       0x0802c3f1   Thumb Code  1330  lv_btnmatrix.o(.text)
    lv_area_copy                             0x0802c923   Thumb Code    18  lv_btnmatrix.o(.text)
    lv_area_get_width                        0x0802c935   Thumb Code    12  lv_btnmatrix.o(.text)
    lv_obj_get_style_pad_top                 0x0802c941   Thumb Code    12  lv_btnmatrix.o(.text)
    lv_obj_get_style_pad_bottom              0x0802c94d   Thumb Code    12  lv_btnmatrix.o(.text)
    lv_obj_get_style_pad_left                0x0802c959   Thumb Code    12  lv_btnmatrix.o(.text)
    lv_obj_get_style_pad_right               0x0802c965   Thumb Code    12  lv_btnmatrix.o(.text)
    lv_obj_get_style_pad_row                 0x0802c971   Thumb Code    12  lv_btnmatrix.o(.text)
    lv_obj_get_style_pad_column              0x0802c97d   Thumb Code    12  lv_btnmatrix.o(.text)
    get_button_width                         0x0802c989   Thumb Code    10  lv_btnmatrix.o(.text)
    allocate_btn_areas_and_controls          0x0802c993   Thumb Code   128  lv_btnmatrix.o(.text)
    make_one_button_checked                  0x0802ca13   Thumb Code    48  lv_btnmatrix.o(.text)
    .text                                    0x0802ca44   Section        0  lv_checkbox.o(.text)
    lv_checkbox_constructor                  0x0802cacb   Thumb Code    42  lv_checkbox.o(.text)
    lv_checkbox_destructor                   0x0802caf5   Thumb Code    24  lv_checkbox.o(.text)
    lv_checkbox_draw                         0x0802cb0d   Thumb Code   436  lv_checkbox.o(.text)
    lv_checkbox_event                        0x0802ccc1   Thumb Code   246  lv_checkbox.o(.text)
    lv_obj_get_style_pad_top                 0x0802cdb7   Thumb Code    12  lv_checkbox.o(.text)
    lv_obj_get_style_pad_bottom              0x0802cdc3   Thumb Code    12  lv_checkbox.o(.text)
    lv_obj_get_style_pad_left                0x0802cdcf   Thumb Code    12  lv_checkbox.o(.text)
    lv_obj_get_style_pad_right               0x0802cddb   Thumb Code    12  lv_checkbox.o(.text)
    lv_obj_get_style_pad_column              0x0802cde7   Thumb Code    12  lv_checkbox.o(.text)
    lv_obj_get_style_text_font               0x0802cdf3   Thumb Code     6  lv_checkbox.o(.text)
    lv_obj_get_style_text_letter_space       0x0802cdf9   Thumb Code    12  lv_checkbox.o(.text)
    lv_obj_get_style_text_line_space         0x0802ce05   Thumb Code    12  lv_checkbox.o(.text)
    .text                                    0x0802ce20   Section        0  lv_dropdown.o(.text)
    position_to_selected                     0x0802d069   Thumb Code    74  lv_dropdown.o(.text)
    lv_dropdown_constructor                  0x0802d43f   Thumb Code    98  lv_dropdown.o(.text)
    lv_dropdown_destructor                   0x0802d4a1   Thumb Code    34  lv_dropdown.o(.text)
    lv_dropdownlist_constructor              0x0802d4c3   Thumb Code    50  lv_dropdown.o(.text)
    lv_dropdownlist_destructor               0x0802d4f5   Thumb Code     8  lv_dropdown.o(.text)
    draw_main                                0x0802d4fd   Thumb Code   578  lv_dropdown.o(.text)
    btn_release_handler                      0x0802d73f   Thumb Code   110  lv_dropdown.o(.text)
    lv_dropdown_event                        0x0802d7ad   Thumb Code   294  lv_dropdown.o(.text)
    draw_box_label                           0x0802d8d3   Thumb Code   200  lv_dropdown.o(.text)
    draw_box                                 0x0802d99b   Thumb Code   162  lv_dropdown.o(.text)
    get_id_on_point                          0x0802da3d   Thumb Code    72  lv_dropdown.o(.text)
    lv_dropdown_list_event                   0x0802da85   Thumb Code   164  lv_dropdown.o(.text)
    lv_obj_get_style_pad_top                 0x0802db29   Thumb Code    12  lv_dropdown.o(.text)
    lv_obj_get_style_border_width            0x0802db35   Thumb Code    12  lv_dropdown.o(.text)
    lv_obj_get_style_text_font               0x0802db41   Thumb Code     6  lv_dropdown.o(.text)
    lv_obj_get_style_text_line_space         0x0802db47   Thumb Code    12  lv_dropdown.o(.text)
    get_label                                0x0802db53   Thumb Code    14  lv_dropdown.o(.text)
    draw_list                                0x0802db61   Thumb Code   144  lv_dropdown.o(.text)
    list_release_handler                     0x0802dbf1   Thumb Code   118  lv_dropdown.o(.text)
    .text                                    0x0802dc6c   Section        0  lv_img.o(.text)
    lv_img_constructor                       0x0802e127   Thumb Code    94  lv_img.o(.text)
    lv_img_destructor                        0x0802e185   Thumb Code    42  lv_img.o(.text)
    lv_img_get_transformed_size              0x0802e1af   Thumb Code    68  lv_img.o(.text)
    draw_img                                 0x0802e1f3   Thumb Code  1088  lv_img.o(.text)
    lv_img_event                             0x0802e633   Thumb Code   494  lv_img.o(.text)
    lv_area_copy                             0x0802e821   Thumb Code    18  lv_img.o(.text)
    .text                                    0x0802e834   Section        0  lv_label.o(.text)
    set_ofs_y_anim                           0x0802ea2f   Thumb Code     8  lv_label.o(.text)
    set_ofs_x_anim                           0x0802ea37   Thumb Code     8  lv_label.o(.text)
    lv_label_refr_text                       0x0802ea3f   Thumb Code  1174  lv_label.o(.text)
    lv_label_revert_dots                     0x0802efc3   Thumb Code    90  lv_label.o(.text)
    lv_label_constructor                     0x0802f4c9   Thumb Code    90  lv_label.o(.text)
    lv_label_destructor                      0x0802f523   Thumb Code    30  lv_label.o(.text)
    draw_main                                0x0802f541   Thumb Code   618  lv_label.o(.text)
    lv_label_event                           0x0802f7ab   Thumb Code   256  lv_label.o(.text)
    lv_area_get_width                        0x0802f8ab   Thumb Code    12  lv_label.o(.text)
    lv_area_get_height                       0x0802f8b7   Thumb Code    12  lv_label.o(.text)
    lv_obj_get_style_width                   0x0802f8c3   Thumb Code    12  lv_label.o(.text)
    lv_obj_get_style_text_font               0x0802f8cf   Thumb Code     6  lv_label.o(.text)
    lv_obj_get_style_text_letter_space       0x0802f8d5   Thumb Code    12  lv_label.o(.text)
    lv_obj_get_style_text_line_space         0x0802f8e1   Thumb Code    12  lv_label.o(.text)
    lv_obj_get_style_anim_speed              0x0802f8ed   Thumb Code     6  lv_label.o(.text)
    lv_label_dot_tmp_free                    0x0802f8f3   Thumb Code    38  lv_label.o(.text)
    .text                                    0x0802f91c   Section        0  lv_line.o(.text)
    lv_line_constructor                      0x0802f967   Thumb Code    18  lv_line.o(.text)
    lv_line_event                            0x0802f979   Thumb Code   374  lv_line.o(.text)
    lv_obj_get_style_line_width              0x0802faef   Thumb Code    12  lv_line.o(.text)
    .text                                    0x0802fb00   Section        0  lv_roller.o(.text)
    inf_normalize                            0x0802fb15   Thumb Code   132  lv_roller.o(.text)
    scroll_anim_ready_cb                     0x0802fc6d   Thumb Code    14  lv_roller.o(.text)
    set_y_anim                               0x0802fc7b   Thumb Code     6  lv_roller.o(.text)
    refr_position                            0x0802fc81   Thumb Code   260  lv_roller.o(.text)
    lv_roller_constructor                    0x0802feb3   Thumb Code    88  lv_roller.o(.text)
    get_sel_area                             0x0802ff0b   Thumb Code   110  lv_roller.o(.text)
    draw_main                                0x0802ff79   Thumb Code   402  lv_roller.o(.text)
    release_handler                          0x0803010b   Thumb Code   306  lv_roller.o(.text)
    get_selected_label_width                 0x0803023d   Thumb Code    82  lv_roller.o(.text)
    lv_roller_event                          0x0803028f   Thumb Code   406  lv_roller.o(.text)
    draw_label                               0x08030425   Thumb Code   248  lv_roller.o(.text)
    lv_roller_label_event                    0x0803051d   Thumb Code   114  lv_roller.o(.text)
    lv_obj_get_style_border_width            0x0803058f   Thumb Code    12  lv_roller.o(.text)
    lv_obj_get_style_text_font               0x0803059b   Thumb Code     6  lv_roller.o(.text)
    lv_obj_get_style_text_line_space         0x080305a1   Thumb Code    12  lv_roller.o(.text)
    get_label                                0x080305ad   Thumb Code     6  lv_roller.o(.text)
    .text                                    0x080305bc   Section        0  lv_slider.o(.text)
    lv_slider_constructor                    0x080305db   Thumb Code    88  lv_slider.o(.text)
    position_knob                            0x08030633   Thumb Code   158  lv_slider.o(.text)
    draw_knob                                0x080306d1   Thumb Code   382  lv_slider.o(.text)
    lv_slider_event                          0x0803084f   Thumb Code  1228  lv_slider.o(.text)
    lv_area_copy                             0x08030d1b   Thumb Code    18  lv_slider.o(.text)
    lv_obj_get_style_transform_width         0x08030d2d   Thumb Code    12  lv_slider.o(.text)
    lv_obj_get_style_transform_height        0x08030d39   Thumb Code    12  lv_slider.o(.text)
    lv_obj_get_style_pad_top                 0x08030d45   Thumb Code    12  lv_slider.o(.text)
    lv_obj_get_style_pad_bottom              0x08030d51   Thumb Code    12  lv_slider.o(.text)
    lv_obj_get_style_pad_left                0x08030d5d   Thumb Code    12  lv_slider.o(.text)
    lv_obj_get_style_pad_right               0x08030d69   Thumb Code    12  lv_slider.o(.text)
    lv_obj_get_style_base_dir                0x08030d75   Thumb Code    12  lv_slider.o(.text)
    lv_slider_get_mode                       0x08030d81   Thumb Code    18  lv_slider.o(.text)
    is_slider_horizontal                     0x08030d93   Thumb Code    28  lv_slider.o(.text)
    .text                                    0x08030db0   Section        0  lv_switch.o(.text)
    lv_switch_constructor                    0x08030dc5   Thumb Code    40  lv_switch.o(.text)
    lv_switch_destructor                     0x08030ded   Thumb Code     8  lv_switch.o(.text)
    draw_main                                0x08030df5   Thumb Code   352  lv_switch.o(.text)
    lv_switch_anim_ready                     0x08030f55   Thumb Code    12  lv_switch.o(.text)
    lv_switch_anim_exec_cb                   0x08030f61   Thumb Code     6  lv_switch.o(.text)
    lv_switch_event                          0x08030f67   Thumb Code   218  lv_switch.o(.text)
    lv_obj_get_style_pad_top                 0x08031041   Thumb Code    12  lv_switch.o(.text)
    lv_obj_get_style_pad_bottom              0x0803104d   Thumb Code    12  lv_switch.o(.text)
    lv_obj_get_style_pad_left                0x08031059   Thumb Code    12  lv_switch.o(.text)
    lv_obj_get_style_pad_right               0x08031065   Thumb Code    12  lv_switch.o(.text)
    lv_switch_trigger_anim                   0x08031071   Thumb Code   116  lv_switch.o(.text)
    .text                                    0x080310f0   Section        0  lv_table.o(.text)
    get_cell_area                            0x08031105   Thumb Code   216  lv_table.o(.text)
    get_row_height                           0x080311dd   Thumb Code   258  lv_table.o(.text)
    refr_cell_size                           0x080312df   Thumb Code   216  lv_table.o(.text)
    refr_size_form_row                       0x080313b7   Thumb Code   186  lv_table.o(.text)
    lv_table_constructor                     0x0803199b   Thumb Code    60  lv_table.o(.text)
    lv_table_destructor                      0x080319d7   Thumb Code    94  lv_table.o(.text)
    draw_main                                0x08031a35   Thumb Code  1196  lv_table.o(.text)
    scroll_to_selected_cell                  0x08031ee1   Thumb Code   116  lv_table.o(.text)
    get_pressed_cell                         0x08031f55   Thumb Code   226  lv_table.o(.text)
    lv_table_event                           0x08032037   Thumb Code   446  lv_table.o(.text)
    lv_obj_get_style_min_height              0x080321f5   Thumb Code    12  lv_table.o(.text)
    lv_obj_get_style_max_height              0x08032201   Thumb Code    12  lv_table.o(.text)
    lv_obj_get_style_pad_top                 0x0803220d   Thumb Code    12  lv_table.o(.text)
    lv_obj_get_style_pad_bottom              0x08032219   Thumb Code    12  lv_table.o(.text)
    lv_obj_get_style_pad_left                0x08032225   Thumb Code    12  lv_table.o(.text)
    lv_obj_get_style_pad_right               0x08032231   Thumb Code    12  lv_table.o(.text)
    lv_obj_get_style_text_font               0x0803223d   Thumb Code     6  lv_table.o(.text)
    lv_obj_get_style_text_letter_space       0x08032243   Thumb Code    12  lv_table.o(.text)
    lv_obj_get_style_text_line_space         0x0803224f   Thumb Code    12  lv_table.o(.text)
    lv_obj_get_style_base_dir                0x0803225b   Thumb Code    12  lv_table.o(.text)
    is_cell_empty                            0x08032267   Thumb Code    10  lv_table.o(.text)
    .text                                    0x08032274   Section        0  lv_textarea.o(.text)
    refr_cursor_area                         0x0803228d   Thumb Code   496  lv_textarea.o(.text)
    cursor_blink_anim_cb                     0x0803247d   Thumb Code   110  lv_textarea.o(.text)
    start_cursor_blink                       0x080324eb   Thumb Code    88  lv_textarea.o(.text)
    pwd_char_hider                           0x0803264f   Thumb Code   150  lv_textarea.o(.text)
    pwd_char_hider_anim_ready                0x080326e5   Thumb Code     4  lv_textarea.o(.text)
    pwd_char_hider_anim                      0x080326e9   Thumb Code     2  lv_textarea.o(.text)
    auto_hide_characters                     0x080326eb   Thumb Code    62  lv_textarea.o(.text)
    insert_handler                           0x08032843   Thumb Code    54  lv_textarea.o(.text)
    label_event_cb                           0x08032de9   Thumb Code    58  lv_textarea.o(.text)
    lv_textarea_constructor                  0x08032e23   Thumb Code   152  lv_textarea.o(.text)
    lv_textarea_destructor                   0x08032ebb   Thumb Code    40  lv_textarea.o(.text)
    draw_cursor                              0x08032ee3   Thumb Code   284  lv_textarea.o(.text)
    update_cursor_position_on_click          0x08032fff   Thumb Code   394  lv_textarea.o(.text)
    lv_textarea_event                        0x08033189   Thumb Code   246  lv_textarea.o(.text)
    lv_area_copy                             0x0803327f   Thumb Code    18  lv_textarea.o(.text)
    lv_pct                                   0x08033291   Thumb Code    16  lv_textarea.o(.text)
    lv_obj_get_style_pad_top                 0x080332a1   Thumb Code    12  lv_textarea.o(.text)
    lv_obj_get_style_pad_left                0x080332ad   Thumb Code    12  lv_textarea.o(.text)
    lv_obj_get_style_border_width            0x080332b9   Thumb Code    12  lv_textarea.o(.text)
    lv_obj_get_style_text_font               0x080332c5   Thumb Code     6  lv_textarea.o(.text)
    lv_obj_get_style_text_line_space         0x080332cb   Thumb Code    12  lv_textarea.o(.text)
    is_valid_but_non_printable_char          0x080332d7   Thumb Code    18  lv_textarea.o(.text)
    draw_placeholder                         0x080332e9   Thumb Code   158  lv_textarea.o(.text)
    .text                                    0x0803338c   Section        0  lv_port_disp.o(.text)
    disp_flush                               0x0803338d   Thumb Code    40  lv_port_disp.o(.text)
    .text                                    0x08033428   Section        0  lv_port_indev.o(.text)
    touchpad_read                            0x08033429   Thumb Code    52  lv_port_indev.o(.text)
    .text                                    0x08033490   Section        0  event_groups.o(.text)
    prvTestWaitCondition                     0x080337ab   Thumb Code    20  event_groups.o(.text)
    .text                                    0x080337c4   Section        0  list.o(.text)
    .text                                    0x08033850   Section        0  queue.o(.text)
    prvUnlockQueue                           0x08033927   Thumb Code   106  queue.o(.text)
    prvCopyDataToQueue                       0x08033991   Thumb Code   106  queue.o(.text)
    prvCopyDataFromQueue                     0x08033f07   Thumb Code    38  queue.o(.text)
    prvIsQueueEmpty                          0x08034419   Thumb Code    26  queue.o(.text)
    .text                                    0x0803443c   Section        0  tasks.o(.text)
    prvAddNewTaskToReadyList                 0x0803443d   Thumb Code   196  tasks.o(.text)
    prvAddCurrentTaskToDelayedList           0x08034775   Thumb Code   102  tasks.o(.text)
    prvTaskIsTaskSuspended                   0x08034b19   Thumb Code    48  tasks.o(.text)
    prvIdleTask                              0x08034c3b   Thumb Code    96  tasks.o(.text)
    prvListTasksWithinSingleList             0x08034dc9   Thumb Code    84  tasks.o(.text)
    prvInitialiseNewTask                     0x080356a3   Thumb Code   170  tasks.o(.text)
    prvResetNextTaskUnblockTime              0x0803574d   Thumb Code    26  tasks.o(.text)
    prvDeleteTCB                             0x08035767   Thumb Code    20  tasks.o(.text)
    .text                                    0x08035788   Section        0  timers.o(.text)
    prvInsertTimerInActiveList               0x08035789   Thumb Code    52  timers.o(.text)
    prvProcessReceivedCommands               0x08035815   Thumb Code   234  timers.o(.text)
    prvTimerTask                             0x080358ff   Thumb Code    34  timers.o(.text)
    prvCheckForValidListAndQueue             0x08035921   Thumb Code    62  timers.o(.text)
    prvSampleTimeNow                         0x08035b0f   Thumb Code    36  timers.o(.text)
    prvProcessTimerOrBlockTask               0x08035b33   Thumb Code   218  timers.o(.text)
    prvSwitchTimerLists                      0x08035c0d   Thumb Code   104  timers.o(.text)
    .text                                    0x08035c78   Section        0  heap_4.o(.text)
    prvInsertBlockIntoFreeList               0x08035c79   Thumb Code    72  heap_4.o(.text)
    prvHeapInit                              0x08035dff   Thumb Code    66  heap_4.o(.text)
    .text                                    0x08035e48   Section        0  port.o(.text)
    prvTaskExitError                         0x08035e49   Thumb Code    36  port.o(.text)
    .text                                    0x0803609c   Section        0  rtc.o(.text)
    .text                                    0x0803611a   Section        0  uldiv.o(.text)
    .text                                    0x0803617c   Section        0  memmovea.o(.text)
    .text                                    0x080361bc   Section        0  memseta.o(.text)
    .text                                    0x080361e0   Section        0  strcat.o(.text)
    .text                                    0x080361f8   Section        0  strstr.o(.text)
    .text                                    0x0803621c   Section        0  strlen.o(.text)
    .text                                    0x0803622a   Section        0  strcmp.o(.text)
    .text                                    0x08036246   Section        0  memcmp.o(.text)
    .text                                    0x08036260   Section        0  strcpy.o(.text)
    .text                                    0x08036272   Section        0  strncmp.o(.text)
    .text                                    0x08036290   Section        0  __0sscanf.o(.text)
    .text                                    0x080362c8   Section        0  _scanf_str.o(.text)
    .text                                    0x080363a8   Section        0  atoi.o(.text)
    .text                                    0x080363c2   Section        0  dmul.o(.text)
    .text                                    0x080364a6   Section        0  dfltui.o(.text)
    .text                                    0x080364c0   Section        0  dfixui.o(.text)
    .text                                    0x080364f2   Section        0  f2d.o(.text)
    .text                                    0x08036518   Section       48  cdcmple.o(.text)
    .text                                    0x08036548   Section       48  cdrcmple.o(.text)
    .text                                    0x08036578   Section        0  uidiv.o(.text)
    .text                                    0x080365a4   Section        0  llshl.o(.text)
    .text                                    0x080365c2   Section        0  llushr.o(.text)
    .text                                    0x080365e4   Section        0  scanf_char.o(.text)
    _scanf_char_input                        0x080365e5   Thumb Code    12  scanf_char.o(.text)
    .text                                    0x0803660c   Section        0  _sgetc.o(.text)
    .text                                    0x0803664c   Section        0  strtol.o(.text)
    .text                                    0x080366bc   Section        0  depilogue.o(.text)
    .text                                    0x080366bc   Section        0  iusefp.o(.text)
    .text                                    0x08036776   Section        0  dadd.o(.text)
    .text                                    0x080368c4   Section        0  ddiv.o(.text)
    .text                                    0x080369a2   Section        0  dsqrt.o(.text)
    .text                                    0x08036a44   Section        0  dfixul.o(.text)
    .text                                    0x08036a74   Section       36  init.o(.text)
    .text                                    0x08036a98   Section        0  llsshr.o(.text)
    .text                                    0x08036abc   Section        0  ctype_o.o(.text)
    .text                                    0x08036ac4   Section        0  isspace_o.o(.text)
    .text                                    0x08036ad8   Section        0  _scanf.o(.text)
    .text                                    0x08036e08   Section        0  _strtoul.o(.text)
    .text                                    0x08036ea6   Section        0  _chval.o(.text)
    .text                                    0x08036ec2   Section        0  __dczerorl2.o(.text)
    i.__0printf                              0x08036f18   Section        0  printfa.o(i.__0printf)
    i.__0sprintf                             0x08036f38   Section        0  printfa.o(i.__0sprintf)
    i.__aeabi_errno_addr                     0x08036f60   Section        0  errno.o(i.__aeabi_errno_addr)
    i.__hardfp_sqrt                          0x08036f68   Section        0  sqrt.o(i.__hardfp_sqrt)
    i.__scatterload_copy                     0x08036fe2   Section       14  handlers.o(i.__scatterload_copy)
    i.__scatterload_null                     0x08036ff0   Section        2  handlers.o(i.__scatterload_null)
    i.__scatterload_zeroinit                 0x08036ff2   Section       14  handlers.o(i.__scatterload_zeroinit)
    i.__set_errno                            0x08037000   Section        0  errno.o(i.__set_errno)
    i._fp_digits                             0x0803700c   Section        0  printfa.o(i._fp_digits)
    _fp_digits                               0x0803700d   Thumb Code   366  printfa.o(i._fp_digits)
    i._printf_core                           0x08037190   Section        0  printfa.o(i._printf_core)
    _printf_core                             0x08037191   Thumb Code  1704  printfa.o(i._printf_core)
    i._printf_post_padding                   0x08037844   Section        0  printfa.o(i._printf_post_padding)
    _printf_post_padding                     0x08037845   Thumb Code    36  printfa.o(i._printf_post_padding)
    i._printf_pre_padding                    0x08037868   Section        0  printfa.o(i._printf_pre_padding)
    _printf_pre_padding                      0x08037869   Thumb Code    46  printfa.o(i._printf_pre_padding)
    i._sputc                                 0x08037896   Section        0  printfa.o(i._sputc)
    _sputc                                   0x08037897   Thumb Code    10  printfa.o(i._sputc)
    .constdata                               0x080378a0   Section       76  main.o(.constdata)
    .constdata                               0x080378ec   Section    153600  chezaibeijing.o(.constdata)
    .constdata                               0x0805d0ec   Section       12  chezaibeijing.o(.constdata)
    .constdata                               0x0805d0f8   Section     1140  lcd_font.o(.constdata)
    .constdata                               0x0805d56c   Section     1520  lcd_font.o(.constdata)
    .constdata                               0x0805db5c   Section     3420  lcd_font.o(.constdata)
    .constdata                               0x0805e8b8   Section     3584  lcd_font.o(.constdata)
    .constdata                               0x0805f6b8   Section        4  lcd_touch.o(.constdata)
    .constdata                               0x0805f6bc   Section       28  stm32f4xx_fsmc.o(.constdata)
    .constdata                               0x0805f6d8   Section       28  lv_obj.o(.constdata)
    .constdata                               0x0805f6f4   Section        8  lv_obj_pos.o(.constdata)
    .constdata                               0x0805f6fc   Section      278  lv_draw_sw_letter.o(.constdata)
    .constdata                               0x0805f812   Section       33  lv_draw_sw_line.o(.constdata)
    wcorr                                    0x0805f812   Data          33  lv_draw_sw_line.o(.constdata)
    .constdata                               0x0805f834   Section        8  lv_draw_sw_polygon.o(.constdata)
    .constdata                               0x0805f83c   Section       22  lv_theme_default.o(.constdata)
    trans_props                              0x0805f83c   Data          22  lv_theme_default.o(.constdata)
    .constdata                               0x0805f854   Section       28  lv_calendar.o(.constdata)
    .constdata                               0x0805f870   Section       28  lv_calendar_header_arrow.o(.constdata)
    .constdata                               0x0805f88c   Section       28  lv_calendar_header_dropdown.o(.constdata)
    .constdata                               0x0805f8a8   Section       28  lv_chart.o(.constdata)
    .constdata                               0x0805f8c4   Section       28  lv_colorwheel.o(.constdata)
    .constdata                               0x0805f8e0   Section       28  lv_keyboard.o(.constdata)
    .constdata                               0x0805f8fc   Section      176  lv_keyboard.o(.constdata)
    default_kb_map_lc                        0x0805f8fc   Data         176  lv_keyboard.o(.constdata)
    .constdata                               0x0805f9ac   Section       80  lv_keyboard.o(.constdata)
    default_kb_ctrl_lc_map                   0x0805f9ac   Data          80  lv_keyboard.o(.constdata)
    .constdata                               0x0805f9fc   Section      176  lv_keyboard.o(.constdata)
    default_kb_map_uc                        0x0805f9fc   Data         176  lv_keyboard.o(.constdata)
    .constdata                               0x0805faac   Section       80  lv_keyboard.o(.constdata)
    default_kb_ctrl_uc_map                   0x0805faac   Data          80  lv_keyboard.o(.constdata)
    .constdata                               0x0805fafc   Section      176  lv_keyboard.o(.constdata)
    default_kb_map_spec                      0x0805fafc   Data         176  lv_keyboard.o(.constdata)
    .constdata                               0x0805fbac   Section       80  lv_keyboard.o(.constdata)
    default_kb_ctrl_spec_map                 0x0805fbac   Data          80  lv_keyboard.o(.constdata)
    .constdata                               0x0805fbfc   Section       84  lv_keyboard.o(.constdata)
    default_kb_map_num                       0x0805fbfc   Data          84  lv_keyboard.o(.constdata)
    .constdata                               0x0805fc50   Section       34  lv_keyboard.o(.constdata)
    default_kb_ctrl_num_map                  0x0805fc50   Data          34  lv_keyboard.o(.constdata)
    .constdata                               0x0805fc74   Section       28  lv_led.o(.constdata)
    .constdata                               0x0805fc90   Section       84  lv_list.o(.constdata)
    .constdata                               0x0805fce4   Section      252  lv_menu.o(.constdata)
    .constdata                               0x0805fde0   Section       28  lv_meter.o(.constdata)
    .constdata                               0x0805fdfc   Section       84  lv_msgbox.o(.constdata)
    .constdata                               0x0805fe50   Section       28  lv_spinbox.o(.constdata)
    .constdata                               0x0805fe6c   Section       28  lv_spinner.o(.constdata)
    .constdata                               0x0805fe88   Section       28  lv_tabview.o(.constdata)
    .constdata                               0x0805fea4   Section       56  lv_tileview.o(.constdata)
    .constdata                               0x0805fedc   Section       28  lv_win.o(.constdata)
    .constdata                               0x0805fef8   Section     8832  lv_font_montserrat_14.o(.constdata)
    glyph_bitmap                             0x0805fef8   Data        8832  lv_font_montserrat_14.o(.constdata)
    .constdata                               0x08062178   Section     1264  lv_font_montserrat_14.o(.constdata)
    glyph_dsc                                0x08062178   Data        1264  lv_font_montserrat_14.o(.constdata)
    .constdata                               0x08062668   Section      124  lv_font_montserrat_14.o(.constdata)
    unicode_list_1                           0x08062668   Data         124  lv_font_montserrat_14.o(.constdata)
    .constdata                               0x080626e4   Section       40  lv_font_montserrat_14.o(.constdata)
    cmaps                                    0x080626e4   Data          40  lv_font_montserrat_14.o(.constdata)
    .constdata                               0x0806270c   Section      158  lv_font_montserrat_14.o(.constdata)
    kern_left_class_mapping                  0x0806270c   Data         158  lv_font_montserrat_14.o(.constdata)
    .constdata                               0x080627aa   Section      158  lv_font_montserrat_14.o(.constdata)
    kern_right_class_mapping                 0x080627aa   Data         158  lv_font_montserrat_14.o(.constdata)
    .constdata                               0x08062848   Section     2989  lv_font_montserrat_14.o(.constdata)
    kern_class_values                        0x08062848   Data        2989  lv_font_montserrat_14.o(.constdata)
    .constdata                               0x080633f8   Section       16  lv_font_montserrat_14.o(.constdata)
    kern_classes                             0x080633f8   Data          16  lv_font_montserrat_14.o(.constdata)
    .constdata                               0x08063408   Section       24  lv_font_montserrat_14.o(.constdata)
    font_dsc                                 0x08063408   Data          24  lv_font_montserrat_14.o(.constdata)
    .constdata                               0x08063420   Section       28  lv_font_montserrat_14.o(.constdata)
    .constdata                               0x0806343c   Section      380  lv_color.o(.constdata)
    colors                                   0x0806343c   Data          38  lv_color.o(.constdata)
    colors                                   0x08063462   Data         190  lv_color.o(.constdata)
    colors                                   0x08063520   Data         152  lv_color.o(.constdata)
    .constdata                               0x080635b8   Section      182  lv_math.o(.constdata)
    sin0_90_table                            0x080635b8   Data         182  lv_math.o(.constdata)
    .constdata                               0x08063670   Section      117  lv_style.o(.constdata)
    null_style_value                         0x08063670   Data           4  lv_style.o(.constdata)
    .constdata                               0x080636e8   Section       28  lv_arc.o(.constdata)
    .constdata                               0x08063704   Section       28  lv_bar.o(.constdata)
    .constdata                               0x08063720   Section       28  lv_btn.o(.constdata)
    .constdata                               0x0806373c   Section       28  lv_btnmatrix.o(.constdata)
    .constdata                               0x08063758   Section       28  lv_checkbox.o(.constdata)
    .constdata                               0x08063774   Section       56  lv_dropdown.o(.constdata)
    .constdata                               0x080637ac   Section       28  lv_img.o(.constdata)
    .constdata                               0x080637c8   Section       28  lv_label.o(.constdata)
    .constdata                               0x080637e4   Section       28  lv_line.o(.constdata)
    .constdata                               0x08063800   Section       56  lv_roller.o(.constdata)
    .constdata                               0x08063838   Section       28  lv_slider.o(.constdata)
    .constdata                               0x08063854   Section       28  lv_switch.o(.constdata)
    .constdata                               0x08063870   Section       28  lv_table.o(.constdata)
    .constdata                               0x0806388c   Section       28  lv_textarea.o(.constdata)
    .constdata                               0x080638a8   Section      129  ctype_o.o(.constdata)
    .constdata                               0x0806392c   Section        4  ctype_o.o(.constdata)
    table                                    0x0806392c   Data           4  ctype_o.o(.constdata)
    .conststring                             0x08063930   Section       76  main.o(.conststring)
    .conststring                             0x0806397c   Section      111  lcd_font.o(.conststring)
    .conststring                             0x080639ec   Section      121  lcd_touch.o(.conststring)
    .conststring                             0x08063a68   Section       27  lv_calendar.o(.conststring)
    .conststring                             0x08063a84   Section      101  lv_calendar_header_arrow.o(.conststring)
    .conststring                             0x08063aec   Section      652  lv_calendar_header_dropdown.o(.conststring)
    .conststring                             0x08063d78   Section      161  lv_keyboard.o(.conststring)
    .conststring                             0x08063e1c   Section      108  lv_keyboard.o(.conststring)
    .conststring                             0x08063e88   Section      130  lv_keyboard.o(.conststring)
    .conststring                             0x08063f0c   Section        4  lv_keyboard.o(.conststring)
    .conststring                             0x08063f10   Section       37  lv_btnmatrix.o(.conststring)
    .data                                    0x20000000   Section       56  main.o(.data)
    msg_queue_handle                         0x20000028   Data           4  main.o(.data)
    time_queue_handle                        0x2000002c   Data           4  main.o(.data)
    event1_group_handle                      0x20000030   Data           4  main.o(.data)
    esptime_weather_sem_mutex_handle         0x20000034   Data           4  main.o(.data)
    .data                                    0x20000038   Section       20  system_stm32f4xx.o(.data)
    .data                                    0x2000004c   Section      112  lcd_font.o(.data)
    .data                                    0x200000bc   Section        4  lcd_screen.o(.data)
    .data                                    0x200000c0   Section       56  lcd_touch.o(.data)
    .data                                    0x200000f8   Section        2  adc.o(.data)
    .data                                    0x200000fc   Section        4  esp8266.o(.data)
    .data                                    0x20000100   Section        4  delay.o(.data)
    fac_us                                   0x20000100   Data           1  delay.o(.data)
    fac_ms                                   0x20000102   Data           2  delay.o(.data)
    .data                                    0x20000104   Section       10  uart.o(.data)
    .data                                    0x20000110   Section        4  uart.o(.data)
    .data                                    0x20000114   Section       16  stm32f4xx_rcc.o(.data)
    APBAHBPrescTable                         0x20000114   Data          16  stm32f4xx_rcc.o(.data)
    .data                                    0x20000124   Section        8  lv_event.o(.data)
    last_id                                  0x20000124   Data           4  lv_event.o(.data)
    event_head                               0x20000128   Data           4  lv_event.o(.data)
    .data                                    0x2000012c   Section        4  lv_group.o(.data)
    default_group                            0x2000012c   Data           4  lv_group.o(.data)
    .data                                    0x20000130   Section       12  lv_indev.o(.data)
    prev_state                               0x20000130   Data           1  lv_indev.o(.data)
    indev_obj_act                            0x20000134   Data           4  lv_indev.o(.data)
    indev_act                                0x20000138   Data           4  lv_indev.o(.data)
    .data                                    0x2000013c   Section        8  lv_obj.o(.data)
    lv_initialized                           0x2000013c   Data           1  lv_obj.o(.data)
    x                                        0x20000140   Data           4  lv_obj.o(.data)
    .data                                    0x20000144   Section        8  lv_obj_pos.o(.data)
    mutex                                    0x20000144   Data           1  lv_obj_pos.o(.data)
    layout_cnt                               0x20000148   Data           4  lv_obj_pos.o(.data)
    .data                                    0x2000014c   Section        1  lv_obj_style.o(.data)
    style_refr                               0x2000014c   Data           1  lv_obj_style.o(.data)
    .data                                    0x20000150   Section       16  lv_refr.o(.data)
    px_num                                   0x20000150   Data           4  lv_refr.o(.data)
    disp_refr                                0x20000154   Data           4  lv_refr.o(.data)
    mem_monitor                              0x20000158   Data           8  lv_refr.o(.data)
    .data                                    0x20000160   Section       12  lv_draw_sw_gradient.o(.data)
    inited                                   0x20000160   Data           1  lv_draw_sw_gradient.o(.data)
    grad_cache_size                          0x20000164   Data           4  lv_draw_sw_gradient.o(.data)
    grad_cache_end                           0x20000168   Data           4  lv_draw_sw_gradient.o(.data)
    .data                                    0x2000016c   Section        8  lv_draw_sw_letter.o(.data)
    prev_opa                                 0x2000016c   Data           1  lv_draw_sw_letter.o(.data)
    prev_bpp                                 0x20000170   Data           4  lv_draw_sw_letter.o(.data)
    .data                                    0x20000174   Section       12  lv_flex.o(.data)
    .data                                    0x20000180   Section       22  lv_grid.o(.data)
    .data                                    0x20000198   Section       32  lv_theme_default.o(.data)
    inited                                   0x20000198   Data           1  lv_theme_default.o(.data)
    disp_size                                0x20000199   Data           1  lv_theme_default.o(.data)
    color_scr                                0x2000019a   Data           2  lv_theme_default.o(.data)
    color_text                               0x2000019c   Data           2  lv_theme_default.o(.data)
    color_card                               0x2000019e   Data           2  lv_theme_default.o(.data)
    color_grey                               0x200001a0   Data           2  lv_theme_default.o(.data)
    styles                                   0x200001a4   Data           4  lv_theme_default.o(.data)
    dark_filter                              0x200001a8   Data           8  lv_theme_default.o(.data)
    grey_filter                              0x200001b0   Data           8  lv_theme_default.o(.data)
    .data                                    0x200001b8   Section       28  lv_calendar.o(.data)
    day_names_def                            0x200001b8   Data          28  lv_calendar.o(.data)
    .data                                    0x200001d4   Section       48  lv_calendar_header_arrow.o(.data)
    month_names_def                          0x200001d4   Data          48  lv_calendar_header_arrow.o(.data)
    .data                                    0x20000204   Section        8  lv_calendar_header_dropdown.o(.data)
    month_list                               0x20000204   Data           4  lv_calendar_header_dropdown.o(.data)
    year_list                                0x20000208   Data           4  lv_calendar_header_dropdown.o(.data)
    .data                                    0x2000020c   Section        8  lv_colorwheel.o(.data)
    s                                        0x2000020c   Data           1  lv_colorwheel.o(.data)
    v                                        0x2000020d   Data           1  lv_colorwheel.o(.data)
    m                                        0x2000020e   Data           1  lv_colorwheel.o(.data)
    create_knob_recolor                      0x2000020f   Data           1  lv_colorwheel.o(.data)
    h                                        0x20000210   Data           2  lv_colorwheel.o(.data)
    angle_saved                              0x20000212   Data           2  lv_colorwheel.o(.data)
    .data                                    0x20000214   Section       72  lv_keyboard.o(.data)
    kb_map                                   0x20000214   Data          36  lv_keyboard.o(.data)
    kb_ctrl                                  0x20000238   Data          36  lv_keyboard.o(.data)
    .data                                    0x2000025c   Section        8  lv_spinner.o(.data)
    time_param                               0x2000025c   Data           4  lv_spinner.o(.data)
    arc_length_param                         0x20000260   Data           4  lv_spinner.o(.data)
    .data                                    0x20000264   Section        4  lv_tabview.o(.data)
    tabpos_create                            0x20000264   Data           1  lv_tabview.o(.data)
    tabsize_create                           0x20000266   Data           2  lv_tabview.o(.data)
    .data                                    0x20000268   Section       12  lv_tileview.o(.data)
    create_dir                               0x20000268   Data           1  lv_tileview.o(.data)
    create_col_id                            0x2000026c   Data           4  lv_tileview.o(.data)
    create_row_id                            0x20000270   Data           4  lv_tileview.o(.data)
    .data                                    0x20000274   Section        2  lv_win.o(.data)
    create_header_height                     0x20000274   Data           2  lv_win.o(.data)
    .data                                    0x20000278   Section        8  lv_font_montserrat_14.o(.data)
    cache                                    0x20000278   Data           8  lv_font_montserrat_14.o(.data)
    .data                                    0x20000280   Section       16  lv_hal_disp.o(.data)
    fg_opa_save                              0x20000280   Data           1  lv_hal_disp.o(.data)
    bg_opa_save                              0x20000281   Data           1  lv_hal_disp.o(.data)
    res_opa_saved                            0x20000282   Data           1  lv_hal_disp.o(.data)
    fg_color_save                            0x20000284   Data           2  lv_hal_disp.o(.data)
    bg_color_save                            0x20000286   Data           2  lv_hal_disp.o(.data)
    res_color_saved                          0x20000288   Data           2  lv_hal_disp.o(.data)
    disp_def                                 0x2000028c   Data           4  lv_hal_disp.o(.data)
    .data                                    0x20000290   Section        8  lv_hal_tick.o(.data)
    tick_irq_flag                            0x20000290   Data           1  lv_hal_tick.o(.data)
    sys_time                                 0x20000294   Data           4  lv_hal_tick.o(.data)
    .data                                    0x20000298   Section       12  lv_anim.o(.data)
    anim_list_changed                        0x20000298   Data           1  lv_anim.o(.data)
    anim_run_round                           0x20000299   Data           1  lv_anim.o(.data)
    last_timer_run                           0x2000029c   Data           4  lv_anim.o(.data)
    _lv_anim_tmr                             0x200002a0   Data           4  lv_anim.o(.data)
    .data                                    0x200002a4   Section       12  lv_area.o(.data)
    angle_prev                               0x200002a4   Data           4  lv_area.o(.data)
    sinma                                    0x200002a8   Data           4  lv_area.o(.data)
    cosma                                    0x200002ac   Data           4  lv_area.o(.data)
    .data                                    0x200002b0   Section       24  lv_gc.o(.data)
    .data                                    0x200002c8   Section        4  lv_math.o(.data)
    a                                        0x200002c8   Data           4  lv_math.o(.data)
    .data                                    0x200002cc   Section       16  lv_mem.o(.data)
    zero_mem                                 0x200002cc   Data           4  lv_mem.o(.data)
    tlsf                                     0x200002d0   Data           4  lv_mem.o(.data)
    cur_used                                 0x200002d4   Data           4  lv_mem.o(.data)
    max_used                                 0x200002d8   Data           4  lv_mem.o(.data)
    .data                                    0x200002dc   Section        8  lv_style.o(.data)
    last_custom_prop_id                      0x200002dc   Data           2  lv_style.o(.data)
    .data                                    0x200002e4   Section       20  lv_timer.o(.data)
    lv_timer_run                             0x200002e4   Data           1  lv_timer.o(.data)
    idle_last                                0x200002e5   Data           1  lv_timer.o(.data)
    already_running                          0x200002e6   Data           1  lv_timer.o(.data)
    timer_deleted                            0x200002e7   Data           1  lv_timer.o(.data)
    timer_created                            0x200002e8   Data           1  lv_timer.o(.data)
    idle_period_start                        0x200002ec   Data           4  lv_timer.o(.data)
    busy_time                                0x200002f0   Data           4  lv_timer.o(.data)
    run_cnt                                  0x200002f4   Data           4  lv_timer.o(.data)
    .data                                    0x200002f8   Section       12  lv_txt.o(.data)
    .data                                    0x20000304   Section        4  lv_txt.o(.data)
    .data                                    0x20000308   Section        4  lv_txt.o(.data)
    .data                                    0x2000030c   Section        4  lv_txt.o(.data)
    .data                                    0x20000310   Section        4  lv_txt.o(.data)
    .data                                    0x20000314   Section       28  lv_btnmatrix.o(.data)
    lv_btnmatrix_def_map                     0x20000314   Data          28  lv_btnmatrix.o(.data)
    .data                                    0x20000330   Section        4  lv_textarea.o(.data)
    ta_insert_replace                        0x20000330   Data           4  lv_textarea.o(.data)
    .data                                    0x20000334   Section        8  lv_port_disp.o(.data)
    .data                                    0x2000033c   Section        8  lv_port_indev.o(.data)
    last_x                                   0x2000033c   Data           2  lv_port_indev.o(.data)
    last_y                                   0x2000033e   Data           2  lv_port_indev.o(.data)
    .data                                    0x20000344   Section       60  tasks.o(.data)
    uxDeletedTasksWaitingCleanUp             0x20000348   Data           4  tasks.o(.data)
    uxCurrentNumberOfTasks                   0x2000034c   Data           4  tasks.o(.data)
    xTickCount                               0x20000350   Data           4  tasks.o(.data)
    uxTopReadyPriority                       0x20000354   Data           4  tasks.o(.data)
    xSchedulerRunning                        0x20000358   Data           4  tasks.o(.data)
    uxPendedTicks                            0x2000035c   Data           4  tasks.o(.data)
    xYieldPending                            0x20000360   Data           4  tasks.o(.data)
    xNumOfOverflows                          0x20000364   Data           4  tasks.o(.data)
    uxTaskNumber                             0x20000368   Data           4  tasks.o(.data)
    xNextTaskUnblockTime                     0x2000036c   Data           4  tasks.o(.data)
    xIdleTaskHandle                          0x20000370   Data           4  tasks.o(.data)
    uxSchedulerSuspended                     0x20000374   Data           4  tasks.o(.data)
    pxDelayedTaskList                        0x20000378   Data           4  tasks.o(.data)
    pxOverflowDelayedTaskList                0x2000037c   Data           4  tasks.o(.data)
    .data                                    0x20000380   Section       20  timers.o(.data)
    xTimerQueue                              0x20000380   Data           4  timers.o(.data)
    xTimerTaskHandle                         0x20000384   Data           4  timers.o(.data)
    xLastTime                                0x20000388   Data           4  timers.o(.data)
    pxCurrentTimerList                       0x2000038c   Data           4  timers.o(.data)
    pxOverflowTimerList                      0x20000390   Data           4  timers.o(.data)
    .data                                    0x20000394   Section       24  heap_4.o(.data)
    pxEnd                                    0x20000394   Data           4  heap_4.o(.data)
    xFreeBytesRemaining                      0x20000398   Data           4  heap_4.o(.data)
    xMinimumEverFreeBytesRemaining           0x2000039c   Data           4  heap_4.o(.data)
    xBlockAllocatedBit                       0x200003a0   Data           4  heap_4.o(.data)
    xStart                                   0x200003a4   Data           8  heap_4.o(.data)
    .data                                    0x200003ac   Section       12  port.o(.data)
    ucMaxSysCallPriority                     0x200003ac   Data           1  port.o(.data)
    uxCriticalNesting                        0x200003b0   Data           4  port.o(.data)
    ulMaxPRIGROUPValue                       0x200003b4   Data           4  port.o(.data)
    .data                                    0x200003b8   Section        4  errno.o(.data)
    _errno                                   0x200003b8   Data           4  errno.o(.data)
    .bss                                     0x200003bc   Section       14  lcd_screen.o(.bss)
    .bss                                     0x200003ca   Section     1536  uart.o(.bss)
    .bss                                     0x200009cc   Section       24  lv_refr.o(.bss)
    perf_monitor                             0x200009cc   Data          24  lv_refr.o(.bss)
    .bss                                     0x200009e4   Section      256  lv_draw_sw_letter.o(.bss)
    opa_table                                0x200009e4   Data         256  lv_draw_sw_letter.o(.bss)
    .bss                                     0x20000ae4   Section       76  lv_theme_default.o(.bss)
    trans_delayed                            0x20000ae4   Data          20  lv_theme_default.o(.bss)
    trans_normal                             0x20000af8   Data          20  lv_theme_default.o(.bss)
    theme                                    0x20000b0c   Data          36  lv_theme_default.o(.bss)
    .bss                                     0x20000b30   Section      508  lv_gc.o(.bss)
    .bss                                     0x20000d2c   Section    40960  lv_mem.o(.bss)
    work_mem_int                             0x20000d2c   Data       40960  lv_mem.o(.bss)
    .bss                                     0x2000ad2c   Section     6508  lv_port_disp.o(.bss)
    draw_buf_dsc_1                           0x2000ad2c   Data          28  lv_port_disp.o(.bss)
    buf_1                                    0x2000ad48   Data        6400  lv_port_disp.o(.bss)
    disp_drv                                 0x2000c648   Data          80  lv_port_disp.o(.bss)
    .bss                                     0x2000c698   Section       32  lv_port_indev.o(.bss)
    indev_drv                                0x2000c698   Data          32  lv_port_indev.o(.bss)
    .bss                                     0x2000c6b8   Section       64  queue.o(.bss)
    .bss                                     0x2000c6f8   Section      260  tasks.o(.bss)
    pxReadyTasksLists                        0x2000c6f8   Data         160  tasks.o(.bss)
    xDelayedTaskList1                        0x2000c798   Data          20  tasks.o(.bss)
    xDelayedTaskList2                        0x2000c7ac   Data          20  tasks.o(.bss)
    xPendingReadyList                        0x2000c7c0   Data          20  tasks.o(.bss)
    xTasksWaitingTermination                 0x2000c7d4   Data          20  tasks.o(.bss)
    xSuspendedTaskList                       0x2000c7e8   Data          20  tasks.o(.bss)
    .bss                                     0x2000c7fc   Section       40  timers.o(.bss)
    xActiveTimerList1                        0x2000c7fc   Data          20  timers.o(.bss)
    xActiveTimerList2                        0x2000c810   Data          20  timers.o(.bss)
    .bss                                     0x2000c824   Section    32768  heap_4.o(.bss)
    ucHeap                                   0x2000c824   Data       32768  heap_4.o(.bss)
    STACK                                    0x20014828   Section     4096  startup_stm32f40_41xxx.o(STACK)

    Global Symbols

    Symbol Name                              Value     Ov Type        Size  Object(Section)

    BuildAttributes$$THM_ISAv4$E$P$D$K$B$S$7EM$VFPi3$EXTD16$VFPS$VFMA$PE$A:L22UL41UL21$X:L11$S22US41US21$IEEE1$IW$USESV6$~STKCKD$USESV7$~SHL$OTIME$ROPI$IEEEJ$EBA8$MICROLIB$REQ8$PRES8$EABIv2 0x00000000   Number         0  anon$$obj.o ABSOLUTE
    __ARM_use_no_argv                        0x00000000   Number         0  main.o ABSOLUTE
    __use_no_errno                           0x00000000   Number         0  useno.o ABSOLUTE
    __use_no_exception_handling              0x00000000   Number         0  useno.o ABSOLUTE
    __use_no_fp                              0x00000000   Number         0  useno.o ABSOLUTE
    __use_no_heap                            0x00000000   Number         0  useno.o ABSOLUTE
    __use_no_heap_region                     0x00000000   Number         0  useno.o ABSOLUTE
    __use_no_semihosting                     0x00000000   Number         0  useno.o ABSOLUTE
    __use_no_semihosting_swi                 0x00000000   Number         0  useno.o ABSOLUTE
    __use_no_signal_handling                 0x00000000   Number         0  useno.o ABSOLUTE
    _printf_a                                0x00000000   Number         0  stubs.o ABSOLUTE
    _printf_c                                0x00000000   Number         0  stubs.o ABSOLUTE
    _printf_charcount                        0x00000000   Number         0  stubs.o ABSOLUTE
    _printf_d                                0x00000000   Number         0  stubs.o ABSOLUTE
    _printf_e                                0x00000000   Number         0  stubs.o ABSOLUTE
    _printf_f                                0x00000000   Number         0  stubs.o ABSOLUTE
    _printf_flags                            0x00000000   Number         0  stubs.o ABSOLUTE
    _printf_fp_dec                           0x00000000   Number         0  stubs.o ABSOLUTE
    _printf_fp_hex                           0x00000000   Number         0  stubs.o ABSOLUTE
    _printf_g                                0x00000000   Number         0  stubs.o ABSOLUTE
    _printf_i                                0x00000000   Number         0  stubs.o ABSOLUTE
    _printf_int_dec                          0x00000000   Number         0  stubs.o ABSOLUTE
    _printf_l                                0x00000000   Number         0  stubs.o ABSOLUTE
    _printf_lc                               0x00000000   Number         0  stubs.o ABSOLUTE
    _printf_ll                               0x00000000   Number         0  stubs.o ABSOLUTE
    _printf_lld                              0x00000000   Number         0  stubs.o ABSOLUTE
    _printf_lli                              0x00000000   Number         0  stubs.o ABSOLUTE
    _printf_llo                              0x00000000   Number         0  stubs.o ABSOLUTE
    _printf_llu                              0x00000000   Number         0  stubs.o ABSOLUTE
    _printf_llx                              0x00000000   Number         0  stubs.o ABSOLUTE
    _printf_longlong_dec                     0x00000000   Number         0  stubs.o ABSOLUTE
    _printf_longlong_hex                     0x00000000   Number         0  stubs.o ABSOLUTE
    _printf_longlong_oct                     0x00000000   Number         0  stubs.o ABSOLUTE
    _printf_ls                               0x00000000   Number         0  stubs.o ABSOLUTE
    _printf_mbtowc                           0x00000000   Number         0  stubs.o ABSOLUTE
    _printf_n                                0x00000000   Number         0  stubs.o ABSOLUTE
    _printf_o                                0x00000000   Number         0  stubs.o ABSOLUTE
    _printf_p                                0x00000000   Number         0  stubs.o ABSOLUTE
    _printf_percent                          0x00000000   Number         0  stubs.o ABSOLUTE
    _printf_pre_padding                      0x00000000   Number         0  stubs.o ABSOLUTE
    _printf_return_value                     0x00000000   Number         0  stubs.o ABSOLUTE
    _printf_s                                0x00000000   Number         0  stubs.o ABSOLUTE
    _printf_sizespec                         0x00000000   Number         0  stubs.o ABSOLUTE
    _printf_str                              0x00000000   Number         0  stubs.o ABSOLUTE
    _printf_truncate_signed                  0x00000000   Number         0  stubs.o ABSOLUTE
    _printf_truncate_unsigned                0x00000000   Number         0  stubs.o ABSOLUTE
    _printf_u                                0x00000000   Number         0  stubs.o ABSOLUTE
    _printf_wc                               0x00000000   Number         0  stubs.o ABSOLUTE
    _printf_wctomb                           0x00000000   Number         0  stubs.o ABSOLUTE
    _printf_widthprec                        0x00000000   Number         0  stubs.o ABSOLUTE
    _printf_x                                0x00000000   Number         0  stubs.o ABSOLUTE
    __arm_fini_                               - Undefined Weak Reference
    __cpp_initialize__aeabi_                  - Undefined Weak Reference
    __cxa_finalize                            - Undefined Weak Reference
    _clock_init                               - Undefined Weak Reference
    _microlib_exit                            - Undefined Weak Reference
    _scanf_int                                - Undefined Weak Reference
    _scanf_longlong                           - Undefined Weak Reference
    _scanf_real                               - Undefined Weak Reference
    __Vectors_Size                           0x00000188   Number         0  startup_stm32f40_41xxx.o ABSOLUTE
    __Vectors                                0x08000000   Data           4  startup_stm32f40_41xxx.o(RESET)
    __Vectors_End                            0x08000188   Data           0  startup_stm32f40_41xxx.o(RESET)
    __main                                   0x08000189   Thumb Code     0  entry.o(.ARM.Collect$$$$00000000)
    _main_stk                                0x08000189   Thumb Code     0  entry2.o(.ARM.Collect$$$$00000001)
    _main_scatterload                        0x0800018d   Thumb Code     0  entry5.o(.ARM.Collect$$$$00000004)
    __main_after_scatterload                 0x08000191   Thumb Code     0  entry5.o(.ARM.Collect$$$$00000004)
    _main_clock                              0x08000191   Thumb Code     0  entry7b.o(.ARM.Collect$$$$00000008)
    _main_cpp_init                           0x08000191   Thumb Code     0  entry8b.o(.ARM.Collect$$$$0000000A)
    _main_init                               0x08000191   Thumb Code     0  entry9a.o(.ARM.Collect$$$$0000000B)
    __rt_lib_shutdown_fini                   0x08000199   Thumb Code     0  entry12b.o(.ARM.Collect$$$$0000000E)
    __rt_final_cpp                           0x0800019d   Thumb Code     0  entry10a.o(.ARM.Collect$$$$0000000F)
    __rt_final_exit                          0x0800019d   Thumb Code     0  entry11a.o(.ARM.Collect$$$$00000011)
    SVC_Handler                              0x080001a1   Thumb Code    28  port.o(.emb_text)
    __asm___6_port_c_39a90d8d__prvStartFirstTask 0x080001c1   Thumb Code    36  port.o(.emb_text)
    __asm___6_port_c_39a90d8d__prvEnableVFP  0x080001e9   Thumb Code    16  port.o(.emb_text)
    PendSV_Handler                           0x080001fd   Thumb Code    88  port.o(.emb_text)
    vPortGetIPSR                             0x08000259   Thumb Code     6  port.o(.emb_text)
    main                                     0x08000a13   Thumb Code   120  main.o(.text)
    vApplicationTickHook                     0x08000a8b   Thumb Code     6  main.o(.text)
    NMI_Handler                              0x08000d09   Thumb Code     2  stm32f4xx_it.o(.text)
    HardFault_Handler                        0x08000d0b   Thumb Code     2  stm32f4xx_it.o(.text)
    MemManage_Handler                        0x08000d0d   Thumb Code     2  stm32f4xx_it.o(.text)
    BusFault_Handler                         0x08000d0f   Thumb Code     2  stm32f4xx_it.o(.text)
    UsageFault_Handler                       0x08000d11   Thumb Code     2  stm32f4xx_it.o(.text)
    DebugMon_Handler                         0x08000d13   Thumb Code     2  stm32f4xx_it.o(.text)
    SystemInit                               0x08000db7   Thumb Code    74  system_stm32f4xx.o(.text)
    SystemCoreClockUpdate                    0x08000e01   Thumb Code   108  system_stm32f4xx.o(.text)
    MY_LIB_CmpArray                          0x08000e91   Thumb Code    32  my_lib.o(.text)
    MY_LIB_ClearArray                        0x08000eb1   Thumb Code    18  my_lib.o(.text)
    BUZZER_Init                              0x08000ec5   Thumb Code    56  buzzer.o(.text)
    BUZZER_TipVoice                          0x08000efd   Thumb Code    24  buzzer.o(.text)
    BUZZER_WarnVoice                         0x08000f15   Thumb Code    52  buzzer.o(.text)
    KEY_Init                                 0x08000f51   Thumb Code    60  key.o(.text)
    LED_Init                                 0x08000f95   Thumb Code    90  led.o(.text)
    LED_ON                                   0x08000fef   Thumb Code    58  led.o(.text)
    LED_OFF                                  0x08001029   Thumb Code    58  led.o(.text)
    LED_WaterRunning                         0x08001063   Thumb Code   104  led.o(.text)
    LED_HorseRunning                         0x080010cb   Thumb Code    84  led.o(.text)
    LED_ShowBin                              0x0800111f   Thumb Code    42  led.o(.text)
    EXTI0234_Init                            0x08001159   Thumb Code   150  exti.o(.text)
    EXTI0_IRQHandler                         0x080011ef   Thumb Code    40  exti.o(.text)
    EXTI2_IRQHandler                         0x08001217   Thumb Code    40  exti.o(.text)
    EXTI4_IRQHandler                         0x0800123f   Thumb Code    40  exti.o(.text)
    TIMER3_Init                              0x08001271   Thumb Code    88  timer.o(.text)
    TIM3_IRQHandler                          0x080012c9   Thumb Code    34  timer.o(.text)
    AT24CXX_Init                             0x080012f1   Thumb Code     4  at24cxx.o(.text)
    AT24CXX_ReadOneByte                      0x080012f5   Thumb Code    66  at24cxx.o(.text)
    AT24CXX_WriteOneByte                     0x08001337   Thumb Code    62  at24cxx.o(.text)
    AT24CXX_WriteLenByte                     0x08001375   Thumb Code    42  at24cxx.o(.text)
    AT24CXX_ReadLenByte                      0x0800139f   Thumb Code    40  at24cxx.o(.text)
    AT24CXX_Check                            0x080013c7   Thumb Code    38  at24cxx.o(.text)
    AT24CXX_Read                             0x080013ed   Thumb Code    34  at24cxx.o(.text)
    AT24CXX_Write                            0x0800140f   Thumb Code    32  at24cxx.o(.text)
    IIC_Init                                 0x08001431   Thumb Code    58  iic.o(.text)
    IIC_Start                                0x0800146b   Thumb Code    56  iic.o(.text)
    IIC_Stop                                 0x080014a3   Thumb Code    58  iic.o(.text)
    IIC_Wait_Ack                             0x080014dd   Thumb Code    74  iic.o(.text)
    IIC_Ack                                  0x08001527   Thumb Code    56  iic.o(.text)
    IIC_NAck                                 0x0800155f   Thumb Code    56  iic.o(.text)
    IIC_Send_Byte                            0x08001597   Thumb Code    86  iic.o(.text)
    IIC_Read_Byte                            0x080015ed   Thumb Code    96  iic.o(.text)
    LCD_WR_REG                               0x08001655   Thumb Code    24  lcd_screen.o(.text)
    LCD_WR_DATA                              0x0800166d   Thumb Code    24  lcd_screen.o(.text)
    LCD_RD_DATA                              0x08001685   Thumb Code    20  lcd_screen.o(.text)
    LCD_WriteReg                             0x08001699   Thumb Code    12  lcd_screen.o(.text)
    LCD_ReadReg                              0x080016a5   Thumb Code    18  lcd_screen.o(.text)
    LCD_WriteRAM_Prepare                     0x080016b7   Thumb Code    14  lcd_screen.o(.text)
    LCD_WriteRAM                             0x080016c5   Thumb Code    10  lcd_screen.o(.text)
    LCD_BGR2RGB                              0x080016cf   Thumb Code    18  lcd_screen.o(.text)
    opt_delay                                0x080016e1   Thumb Code     8  lcd_screen.o(.text)
    LCD_SetCursor                            0x080016e9   Thumb Code   322  lcd_screen.o(.text)
    LCD_ReadPoint                            0x0800182b   Thumb Code   254  lcd_screen.o(.text)
    LCD_DisplayOn                            0x08001929   Thumb Code    62  lcd_screen.o(.text)
    LCD_DisplayOff                           0x08001967   Thumb Code    60  lcd_screen.o(.text)
    LCD_Scan_Dir                             0x080019a3   Thumb Code   514  lcd_screen.o(.text)
    LCD_DrawPoint                            0x08001ba5   Thumb Code    24  lcd_screen.o(.text)
    LCD_Fast_DrawPoint                       0x08001bbd   Thumb Code   266  lcd_screen.o(.text)
    LCD_SSD_BackLightSet                     0x08001cc7   Thumb Code    70  lcd_screen.o(.text)
    LCD_Display_Dir                          0x08001d0d   Thumb Code   302  lcd_screen.o(.text)
    LCD_Set_Window                           0x08001e3b   Thumb Code   490  lcd_screen.o(.text)
    LCD_Clear                                0x08002025   Thumb Code   104  lcd_screen.o(.text)
    LCD_Init                                 0x0800208d   Thumb Code 14174  lcd_screen.o(.text)
    LCD_Fill                                 0x080057eb   Thumb Code   134  lcd_screen.o(.text)
    LCD_Color_Fill                           0x08005871   Thumb Code    86  lcd_screen.o(.text)
    LCD_DrawLine                             0x080058c7   Thumb Code   150  lcd_screen.o(.text)
    LCD_DrawRectangle                        0x0800595d   Thumb Code    54  lcd_screen.o(.text)
    LCD_Draw_Circle                          0x08005993   Thumb Code   176  lcd_screen.o(.text)
    LCD_ShowChar                             0x08005a43   Thumb Code   184  lcd_screen.o(.text)
    LCD_Pow                                  0x08005afb   Thumb Code    16  lcd_screen.o(.text)
    LCD_ShowNum                              0x08005b0b   Thumb Code   118  lcd_screen.o(.text)
    LCD_ShowxNum                             0x08005b81   Thumb Code   150  lcd_screen.o(.text)
    LCD_ShowString                           0x08005c17   Thumb Code    82  lcd_screen.o(.text)
    lcd_send_data                            0x08005c69   Thumb Code    12  lcd_screen.o(.text)
    lcd_addr_set                             0x08005c75   Thumb Code    26  lcd_screen.o(.text)
    lcd_show_char                            0x08005c8f   Thumb Code   104  lcd_screen.o(.text)
    FindFontIndex                            0x08005cf7   Thumb Code    52  lcd_screen.o(.text)
    lcd_show_string                          0x08005d2b   Thumb Code    96  lcd_screen.o(.text)
    lcd_draw_image                           0x08005d8b   Thumb Code    56  lcd_screen.o(.text)
    TP_Write_Byte                            0x08005dcd   Thumb Code    62  lcd_touch.o(.text)
    TP_Read_AD                               0x08005e0b   Thumb Code   124  lcd_touch.o(.text)
    TP_Read_XOY                              0x08005e87   Thumb Code    96  lcd_touch.o(.text)
    TP_Read_XY                               0x08005ee7   Thumb Code    34  lcd_touch.o(.text)
    TP_Read_XY2                              0x08005f09   Thumb Code   124  lcd_touch.o(.text)
    TP_Drow_Touch_Point                      0x08005f85   Thumb Code   106  lcd_touch.o(.text)
    TP_Draw_Big_Point                        0x08005fef   Thumb Code    48  lcd_touch.o(.text)
    TP_Scan                                  0x0800601f   Thumb Code   190  lcd_touch.o(.text)
    TP_Save_Adjdata                          0x080060dd   Thumb Code   164  lcd_touch.o(.text)
    TP_Get_Adjdata                           0x08006181   Thumb Code   228  lcd_touch.o(.text)
    TP_Adj_Info_Show                         0x08006265   Thumb Code   326  lcd_touch.o(.text)
    TP_Adjust                                0x080063ab   Thumb Code  1374  lcd_touch.o(.text)
    TP_Init                                  0x08006909   Thumb Code   134  lcd_touch.o(.text)
    ADC3_IN5_LightInit                       0x080069d9   Thumb Code   122  adc.o(.text)
    ADC3_IN5_GetLightVal                     0x08006a53   Thumb Code    34  adc.o(.text)
    DHT11_Init                               0x08006a81   Thumb Code    54  dht11.o(.text)
    DHT11_SelectMode                         0x08006ab7   Thumb Code    62  dht11.o(.text)
    DHT11_GetData                            0x08006af5   Thumb Code   310  dht11.o(.text)
    MQ2_Init                                 0x08006c35   Thumb Code   132  mq2.o(.text)
    Get_MQ2_AO_Voltage                       0x08006cb9   Thumb Code    66  mq2.o(.text)
    Get_MQ2_DO_Level                         0x08006cfb   Thumb Code     8  mq2.o(.text)
    MQ7_Init                                 0x08006d19   Thumb Code   134  mq7.o(.text)
    Get_MQ7_AO_Voltage                       0x08006d9f   Thumb Code    66  mq7.o(.text)
    Get_MQ7_DO_Level                         0x08006de1   Thumb Code    10  mq7.o(.text)
    MQ135_Init                               0x08006e01   Thumb Code    36  mq135.o(.text)
    Get_MQ135_DO_Level                       0x08006e25   Thumb Code    10  mq135.o(.text)
    ESP8266_CheckStrInRxbuf                  0x08006e35   Thumb Code    46  esp8266.o(.text)
    ESP8266_SendATCmd                        0x08006e63   Thumb Code    38  esp8266.o(.text)
    ESP8266_ConnectAp                        0x08006e89   Thumb Code   134  esp8266.o(.text)
    ESP8266_EnEcho                           0x08006f0f   Thumb Code    40  esp8266.o(.text)
    ESP8266_ExitTransparentTransmission      0x08006f37   Thumb Code    84  esp8266.o(.text)
    ESP8266_OnLineInit                       0x08006f8b   Thumb Code    98  esp8266.o(.text)
    ESP8266_Init                             0x08006fed   Thumb Code     4  esp8266.o(.text)
    ESP8266_Rst                              0x08006ff1   Thumb Code    32  esp8266.o(.text)
    ESP8266_EnterTransparentTransmission     0x08007011   Thumb Code    80  esp8266.o(.text)
    ESP8266_ConnectServer                    0x08007061   Thumb Code   134  esp8266.o(.text)
    ESP8266_GetTimeFunc                      0x0800727d   Thumb Code   270  esp8266_gettime.o(.text)
    DELAY_MyNms                              0x080074dd   Thumb Code    20  delay.o(.text)
    DELAY_SysTickInit                        0x080074f1   Thumb Code    50  delay.o(.text)
    delay_us                                 0x08007523   Thumb Code    78  delay.o(.text)
    delay_ms                                 0x08007571   Thumb Code    50  delay.o(.text)
    fputc                                    0x080075b1   Thumb Code    30  uart.o(.text)
    _sys_exit                                0x080075cf   Thumb Code     2  uart.o(.text)
    UART1_Init                               0x080075d1   Thumb Code   172  uart.o(.text)
    UART2_Init                               0x0800767d   Thumb Code   176  uart.o(.text)
    UART3_Init                               0x0800772d   Thumb Code   186  uart.o(.text)
    UART1_SendStr                            0x080077e7   Thumb Code    36  uart.o(.text)
    UART2_SendStr                            0x0800780b   Thumb Code    36  uart.o(.text)
    UART3_SendStr                            0x0800782f   Thumb Code    36  uart.o(.text)
    USART1_IRQHandler                        0x08007853   Thumb Code    84  uart.o(.text)
    USART2_IRQHandler                        0x080078a7   Thumb Code    86  uart.o(.text)
    USART3_IRQHandler                        0x080078fd   Thumb Code    92  uart.o(.text)
    GPIO_DeInit                              0x0800797d   Thumb Code   216  stm32f4xx_gpio.o(.text)
    GPIO_Init                                0x08007a55   Thumb Code   120  stm32f4xx_gpio.o(.text)
    GPIO_StructInit                          0x08007acd   Thumb Code    18  stm32f4xx_gpio.o(.text)
    GPIO_PinLockConfig                       0x08007adf   Thumb Code    24  stm32f4xx_gpio.o(.text)
    GPIO_ReadInputDataBit                    0x08007af7   Thumb Code    14  stm32f4xx_gpio.o(.text)
    GPIO_ReadInputData                       0x08007b05   Thumb Code     6  stm32f4xx_gpio.o(.text)
    GPIO_ReadOutputDataBit                   0x08007b0b   Thumb Code    14  stm32f4xx_gpio.o(.text)
    GPIO_ReadOutputData                      0x08007b19   Thumb Code     6  stm32f4xx_gpio.o(.text)
    GPIO_SetBits                             0x08007b1f   Thumb Code     4  stm32f4xx_gpio.o(.text)
    GPIO_ResetBits                           0x08007b23   Thumb Code     4  stm32f4xx_gpio.o(.text)
    GPIO_WriteBit                            0x08007b27   Thumb Code    10  stm32f4xx_gpio.o(.text)
    GPIO_Write                               0x08007b31   Thumb Code     4  stm32f4xx_gpio.o(.text)
    GPIO_ToggleBits                          0x08007b35   Thumb Code     8  stm32f4xx_gpio.o(.text)
    GPIO_PinAFConfig                         0x08007b3d   Thumb Code    32  stm32f4xx_gpio.o(.text)
    RCC_DeInit                               0x08007b89   Thumb Code    68  stm32f4xx_rcc.o(.text)
    RCC_HSEConfig                            0x08007bcd   Thumb Code    12  stm32f4xx_rcc.o(.text)
    RCC_GetFlagStatus                        0x08007bd9   Thumb Code    46  stm32f4xx_rcc.o(.text)
    RCC_WaitForHSEStartUp                    0x08007c07   Thumb Code    44  stm32f4xx_rcc.o(.text)
    RCC_AdjustHSICalibrationValue            0x08007c33   Thumb Code    16  stm32f4xx_rcc.o(.text)
    RCC_HSICmd                               0x08007c43   Thumb Code     6  stm32f4xx_rcc.o(.text)
    RCC_LSEConfig                            0x08007c49   Thumb Code    24  stm32f4xx_rcc.o(.text)
    RCC_LSICmd                               0x08007c61   Thumb Code     6  stm32f4xx_rcc.o(.text)
    RCC_PLLConfig                            0x08007c67   Thumb Code    32  stm32f4xx_rcc.o(.text)
    RCC_PLLCmd                               0x08007c87   Thumb Code     6  stm32f4xx_rcc.o(.text)
    RCC_PLLI2SConfig                         0x08007c8d   Thumb Code    14  stm32f4xx_rcc.o(.text)
    RCC_PLLI2SCmd                            0x08007c9b   Thumb Code     6  stm32f4xx_rcc.o(.text)
    RCC_PLLSAIConfig                         0x08007ca1   Thumb Code    18  stm32f4xx_rcc.o(.text)
    RCC_PLLSAICmd                            0x08007cb3   Thumb Code     6  stm32f4xx_rcc.o(.text)
    RCC_ClockSecuritySystemCmd               0x08007cb9   Thumb Code     6  stm32f4xx_rcc.o(.text)
    RCC_MCO1Config                           0x08007cbf   Thumb Code    18  stm32f4xx_rcc.o(.text)
    RCC_MCO2Config                           0x08007cd1   Thumb Code    18  stm32f4xx_rcc.o(.text)
    RCC_SYSCLKConfig                         0x08007ce3   Thumb Code    16  stm32f4xx_rcc.o(.text)
    RCC_GetSYSCLKSource                      0x08007cf3   Thumb Code    12  stm32f4xx_rcc.o(.text)
    RCC_HCLKConfig                           0x08007cff   Thumb Code    16  stm32f4xx_rcc.o(.text)
    RCC_PCLK1Config                          0x08007d0f   Thumb Code    16  stm32f4xx_rcc.o(.text)
    RCC_PCLK2Config                          0x08007d1f   Thumb Code    18  stm32f4xx_rcc.o(.text)
    RCC_GetClocksFreq                        0x08007d31   Thumb Code   134  stm32f4xx_rcc.o(.text)
    RCC_RTCCLKConfig                         0x08007db7   Thumb Code    42  stm32f4xx_rcc.o(.text)
    RCC_RTCCLKCmd                            0x08007de1   Thumb Code     8  stm32f4xx_rcc.o(.text)
    RCC_BackupResetCmd                       0x08007de9   Thumb Code     8  stm32f4xx_rcc.o(.text)
    RCC_I2SCLKConfig                         0x08007df1   Thumb Code     8  stm32f4xx_rcc.o(.text)
    RCC_SAIPLLI2SClkDivConfig                0x08007df9   Thumb Code    18  stm32f4xx_rcc.o(.text)
    RCC_SAIPLLSAIClkDivConfig                0x08007e0b   Thumb Code    24  stm32f4xx_rcc.o(.text)
    RCC_SAIBlockACLKConfig                   0x08007e23   Thumb Code    16  stm32f4xx_rcc.o(.text)
    RCC_SAIBlockBCLKConfig                   0x08007e33   Thumb Code    16  stm32f4xx_rcc.o(.text)
    RCC_LTDCCLKDivConfig                     0x08007e43   Thumb Code    16  stm32f4xx_rcc.o(.text)
    RCC_TIMCLKPresConfig                     0x08007e53   Thumb Code     8  stm32f4xx_rcc.o(.text)
    RCC_AHB1PeriphClockCmd                   0x08007e5b   Thumb Code    20  stm32f4xx_rcc.o(.text)
    RCC_AHB2PeriphClockCmd                   0x08007e6f   Thumb Code    20  stm32f4xx_rcc.o(.text)
    RCC_AHB3PeriphClockCmd                   0x08007e83   Thumb Code    20  stm32f4xx_rcc.o(.text)
    RCC_APB1PeriphClockCmd                   0x08007e97   Thumb Code    20  stm32f4xx_rcc.o(.text)
    RCC_APB2PeriphClockCmd                   0x08007eab   Thumb Code    20  stm32f4xx_rcc.o(.text)
    RCC_AHB1PeriphResetCmd                   0x08007ebf   Thumb Code    20  stm32f4xx_rcc.o(.text)
    RCC_AHB2PeriphResetCmd                   0x08007ed3   Thumb Code    20  stm32f4xx_rcc.o(.text)
    RCC_AHB3PeriphResetCmd                   0x08007ee7   Thumb Code    20  stm32f4xx_rcc.o(.text)
    RCC_APB1PeriphResetCmd                   0x08007efb   Thumb Code    20  stm32f4xx_rcc.o(.text)
    RCC_APB2PeriphResetCmd                   0x08007f0f   Thumb Code    20  stm32f4xx_rcc.o(.text)
    RCC_AHB1PeriphClockLPModeCmd             0x08007f23   Thumb Code    20  stm32f4xx_rcc.o(.text)
    RCC_AHB2PeriphClockLPModeCmd             0x08007f37   Thumb Code    20  stm32f4xx_rcc.o(.text)
    RCC_AHB3PeriphClockLPModeCmd             0x08007f4b   Thumb Code    20  stm32f4xx_rcc.o(.text)
    RCC_APB1PeriphClockLPModeCmd             0x08007f5f   Thumb Code    64  stm32f4xx_rcc.o(.text)
    RCC_APB2PeriphClockLPModeCmd             0x08007f9f   Thumb Code    18  stm32f4xx_rcc.o(.text)
    RCC_LSEModeConfig                        0x08007fb1   Thumb Code    24  stm32f4xx_rcc.o(.text)
    RCC_ITConfig                             0x08007fc9   Thumb Code    20  stm32f4xx_rcc.o(.text)
    RCC_ClearFlag                            0x08007fdd   Thumb Code    14  stm32f4xx_rcc.o(.text)
    RCC_GetITStatus                          0x08007feb   Thumb Code    18  stm32f4xx_rcc.o(.text)
    RCC_ClearITPendingBit                    0x08007ffd   Thumb Code     8  stm32f4xx_rcc.o(.text)
    EXTI_DeInit                              0x08008009   Thumb Code    28  stm32f4xx_exti.o(.text)
    EXTI_Init                                0x08008025   Thumb Code   108  stm32f4xx_exti.o(.text)
    EXTI_StructInit                          0x08008091   Thumb Code    14  stm32f4xx_exti.o(.text)
    EXTI_GenerateSWInterrupt                 0x0800809f   Thumb Code    12  stm32f4xx_exti.o(.text)
    EXTI_GetFlagStatus                       0x080080ab   Thumb Code    18  stm32f4xx_exti.o(.text)
    EXTI_ClearFlag                           0x080080bd   Thumb Code     8  stm32f4xx_exti.o(.text)
    EXTI_GetITStatus                         0x080080c5   Thumb Code    18  stm32f4xx_exti.o(.text)
    EXTI_ClearITPendingBit                   0x080080d7   Thumb Code     8  stm32f4xx_exti.o(.text)
    SYSCFG_DeInit                            0x080080e9   Thumb Code    24  stm32f4xx_syscfg.o(.text)
    SYSCFG_MemoryRemapConfig                 0x08008101   Thumb Code     6  stm32f4xx_syscfg.o(.text)
    SYSCFG_MemorySwappingBank                0x08008107   Thumb Code     6  stm32f4xx_syscfg.o(.text)
    SYSCFG_EXTILineConfig                    0x0800810d   Thumb Code    42  stm32f4xx_syscfg.o(.text)
    SYSCFG_ETH_MediaInterfaceConfig          0x08008137   Thumb Code     8  stm32f4xx_syscfg.o(.text)
    SYSCFG_CompensationCellCmd               0x0800813f   Thumb Code     6  stm32f4xx_syscfg.o(.text)
    SYSCFG_GetCompensationCellStatus         0x08008145   Thumb Code    16  stm32f4xx_syscfg.o(.text)
    NVIC_PriorityGroupConfig                 0x08008165   Thumb Code    10  misc.o(.text)
    NVIC_Init                                0x0800816f   Thumb Code    96  misc.o(.text)
    NVIC_SetVectorTable                      0x080081cf   Thumb Code    14  misc.o(.text)
    NVIC_SystemLPConfig                      0x080081dd   Thumb Code    20  misc.o(.text)
    SysTick_CLKSourceConfig                  0x080081f1   Thumb Code    24  misc.o(.text)
    TIM_DeInit                               0x08008215   Thumb Code   284  stm32f4xx_tim.o(.text)
    TIM_TimeBaseInit                         0x08008331   Thumb Code    96  stm32f4xx_tim.o(.text)
    TIM_TimeBaseStructInit                   0x08008391   Thumb Code    18  stm32f4xx_tim.o(.text)
    TIM_PrescalerConfig                      0x080083a3   Thumb Code     6  stm32f4xx_tim.o(.text)
    TIM_CounterModeConfig                    0x080083a9   Thumb Code    12  stm32f4xx_tim.o(.text)
    TIM_SetCounter                           0x080083b5   Thumb Code     4  stm32f4xx_tim.o(.text)
    TIM_SetAutoreload                        0x080083b9   Thumb Code     4  stm32f4xx_tim.o(.text)
    TIM_GetCounter                           0x080083bd   Thumb Code     4  stm32f4xx_tim.o(.text)
    TIM_GetPrescaler                         0x080083c1   Thumb Code     4  stm32f4xx_tim.o(.text)
    TIM_UpdateDisableConfig                  0x080083c5   Thumb Code    20  stm32f4xx_tim.o(.text)
    TIM_UpdateRequestConfig                  0x080083d9   Thumb Code    20  stm32f4xx_tim.o(.text)
    TIM_ARRPreloadConfig                     0x080083ed   Thumb Code    20  stm32f4xx_tim.o(.text)
    TIM_SelectOnePulseMode                   0x08008401   Thumb Code    16  stm32f4xx_tim.o(.text)
    TIM_SetClockDivision                     0x08008411   Thumb Code    16  stm32f4xx_tim.o(.text)
    TIM_Cmd                                  0x08008421   Thumb Code    20  stm32f4xx_tim.o(.text)
    TIM_OC1Init                              0x08008435   Thumb Code    88  stm32f4xx_tim.o(.text)
    TIM_OC2Init                              0x0800848d   Thumb Code   120  stm32f4xx_tim.o(.text)
    TIM_OC3Init                              0x08008505   Thumb Code   116  stm32f4xx_tim.o(.text)
    TIM_OC4Init                              0x08008579   Thumb Code    88  stm32f4xx_tim.o(.text)
    TIM_OCStructInit                         0x080085d1   Thumb Code    20  stm32f4xx_tim.o(.text)
    TIM_SelectOCxM                           0x080085e5   Thumb Code   130  stm32f4xx_tim.o(.text)
    TIM_SetCompare1                          0x08008667   Thumb Code     4  stm32f4xx_tim.o(.text)
    TIM_SetCompare2                          0x0800866b   Thumb Code     4  stm32f4xx_tim.o(.text)
    TIM_SetCompare3                          0x0800866f   Thumb Code     4  stm32f4xx_tim.o(.text)
    TIM_SetCompare4                          0x08008673   Thumb Code     4  stm32f4xx_tim.o(.text)
    TIM_ForcedOC1Config                      0x08008677   Thumb Code    12  stm32f4xx_tim.o(.text)
    TIM_ForcedOC2Config                      0x08008683   Thumb Code    20  stm32f4xx_tim.o(.text)
    TIM_ForcedOC3Config                      0x08008697   Thumb Code    12  stm32f4xx_tim.o(.text)
    TIM_ForcedOC4Config                      0x080086a3   Thumb Code    20  stm32f4xx_tim.o(.text)
    TIM_OC1PreloadConfig                     0x080086b7   Thumb Code    12  stm32f4xx_tim.o(.text)
    TIM_OC2PreloadConfig                     0x080086c3   Thumb Code    20  stm32f4xx_tim.o(.text)
    TIM_OC3PreloadConfig                     0x080086d7   Thumb Code    12  stm32f4xx_tim.o(.text)
    TIM_OC4PreloadConfig                     0x080086e3   Thumb Code    20  stm32f4xx_tim.o(.text)
    TIM_OC1FastConfig                        0x080086f7   Thumb Code    12  stm32f4xx_tim.o(.text)
    TIM_OC2FastConfig                        0x08008703   Thumb Code    20  stm32f4xx_tim.o(.text)
    TIM_OC3FastConfig                        0x08008717   Thumb Code    12  stm32f4xx_tim.o(.text)
    TIM_OC4FastConfig                        0x08008723   Thumb Code    20  stm32f4xx_tim.o(.text)
    TIM_ClearOC1Ref                          0x08008737   Thumb Code    12  stm32f4xx_tim.o(.text)
    TIM_ClearOC2Ref                          0x08008743   Thumb Code    20  stm32f4xx_tim.o(.text)
    TIM_ClearOC3Ref                          0x08008757   Thumb Code    12  stm32f4xx_tim.o(.text)
    TIM_ClearOC4Ref                          0x08008763   Thumb Code    20  stm32f4xx_tim.o(.text)
    TIM_OC1PolarityConfig                    0x08008777   Thumb Code    12  stm32f4xx_tim.o(.text)
    TIM_OC1NPolarityConfig                   0x08008783   Thumb Code    12  stm32f4xx_tim.o(.text)
    TIM_OC2PolarityConfig                    0x0800878f   Thumb Code    20  stm32f4xx_tim.o(.text)
    TIM_OC2NPolarityConfig                   0x080087a3   Thumb Code    20  stm32f4xx_tim.o(.text)
    TIM_OC3PolarityConfig                    0x080087b7   Thumb Code    20  stm32f4xx_tim.o(.text)
    TIM_OC3NPolarityConfig                   0x080087cb   Thumb Code    20  stm32f4xx_tim.o(.text)
    TIM_OC4PolarityConfig                    0x080087df   Thumb Code    20  stm32f4xx_tim.o(.text)
    TIM_CCxCmd                               0x080087f3   Thumb Code    22  stm32f4xx_tim.o(.text)
    TIM_CCxNCmd                              0x08008809   Thumb Code    22  stm32f4xx_tim.o(.text)
    TIM_SetIC4Prescaler                      0x0800881f   Thumb Code    24  stm32f4xx_tim.o(.text)
    TIM_SetIC3Prescaler                      0x08008837   Thumb Code    16  stm32f4xx_tim.o(.text)
    TIM_SetIC2Prescaler                      0x08008847   Thumb Code    24  stm32f4xx_tim.o(.text)
    TIM_SetIC1Prescaler                      0x08008895   Thumb Code    16  stm32f4xx_tim.o(.text)
    TIM_ICInit                               0x080088a5   Thumb Code   164  stm32f4xx_tim.o(.text)
    TIM_ICStructInit                         0x08008949   Thumb Code    16  stm32f4xx_tim.o(.text)
    TIM_PWMIConfig                           0x08008959   Thumb Code   104  stm32f4xx_tim.o(.text)
    TIM_GetCapture1                          0x080089c1   Thumb Code     4  stm32f4xx_tim.o(.text)
    TIM_GetCapture2                          0x080089c5   Thumb Code     4  stm32f4xx_tim.o(.text)
    TIM_GetCapture3                          0x080089c9   Thumb Code     4  stm32f4xx_tim.o(.text)
    TIM_GetCapture4                          0x080089cd   Thumb Code     4  stm32f4xx_tim.o(.text)
    TIM_BDTRConfig                           0x080089d1   Thumb Code    34  stm32f4xx_tim.o(.text)
    TIM_BDTRStructInit                       0x080089f3   Thumb Code    18  stm32f4xx_tim.o(.text)
    TIM_CtrlPWMOutputs                       0x08008a05   Thumb Code    22  stm32f4xx_tim.o(.text)
    TIM_SelectCOM                            0x08008a1b   Thumb Code    20  stm32f4xx_tim.o(.text)
    TIM_CCPreloadControl                     0x08008a2f   Thumb Code    20  stm32f4xx_tim.o(.text)
    TIM_ITConfig                             0x08008a43   Thumb Code    16  stm32f4xx_tim.o(.text)
    TIM_GenerateEvent                        0x08008a53   Thumb Code     4  stm32f4xx_tim.o(.text)
    TIM_GetFlagStatus                        0x08008a57   Thumb Code    14  stm32f4xx_tim.o(.text)
    TIM_ClearFlag                            0x08008a65   Thumb Code     6  stm32f4xx_tim.o(.text)
    TIM_GetITStatus                          0x08008a6b   Thumb Code    24  stm32f4xx_tim.o(.text)
    TIM_ClearITPendingBit                    0x08008a83   Thumb Code     6  stm32f4xx_tim.o(.text)
    TIM_DMAConfig                            0x08008a89   Thumb Code     8  stm32f4xx_tim.o(.text)
    TIM_DMACmd                               0x08008a91   Thumb Code    16  stm32f4xx_tim.o(.text)
    TIM_SelectCCDMA                          0x08008aa1   Thumb Code    20  stm32f4xx_tim.o(.text)
    TIM_InternalClockConfig                  0x08008ab5   Thumb Code    10  stm32f4xx_tim.o(.text)
    TIM_SelectInputTrigger                   0x08008abf   Thumb Code    12  stm32f4xx_tim.o(.text)
    TIM_ITRxExternalClockConfig              0x08008acb   Thumb Code    18  stm32f4xx_tim.o(.text)
    TIM_TIxExternalClockConfig               0x08008add   Thumb Code    46  stm32f4xx_tim.o(.text)
    TIM_ETRConfig                            0x08008b0b   Thumb Code    24  stm32f4xx_tim.o(.text)
    TIM_ETRClockMode1Config                  0x08008b23   Thumb Code    18  stm32f4xx_tim.o(.text)
    TIM_ETRClockMode2Config                  0x08008b35   Thumb Code    18  stm32f4xx_tim.o(.text)
    TIM_SelectOutputTrigger                  0x08008b47   Thumb Code    16  stm32f4xx_tim.o(.text)
    TIM_SelectSlaveMode                      0x08008b57   Thumb Code    16  stm32f4xx_tim.o(.text)
    TIM_SelectMasterSlaveMode                0x08008b67   Thumb Code    16  stm32f4xx_tim.o(.text)
    TIM_EncoderInterfaceConfig               0x08008b77   Thumb Code    50  stm32f4xx_tim.o(.text)
    TIM_SelectHallSensor                     0x08008ba9   Thumb Code    20  stm32f4xx_tim.o(.text)
    TIM_RemapConfig                          0x08008bbd   Thumb Code     6  stm32f4xx_tim.o(.text)
    USART_DeInit                             0x08008bf1   Thumb Code   138  stm32f4xx_usart.o(.text)
    USART_Init                               0x08008c7b   Thumb Code   164  stm32f4xx_usart.o(.text)
    USART_StructInit                         0x08008d1f   Thumb Code    22  stm32f4xx_usart.o(.text)
    USART_ClockInit                          0x08008d35   Thumb Code    28  stm32f4xx_usart.o(.text)
    USART_ClockStructInit                    0x08008d51   Thumb Code    12  stm32f4xx_usart.o(.text)
    USART_Cmd                                0x08008d5d   Thumb Code    20  stm32f4xx_usart.o(.text)
    USART_SetPrescaler                       0x08008d71   Thumb Code    16  stm32f4xx_usart.o(.text)
    USART_OverSampling8Cmd                   0x08008d81   Thumb Code    20  stm32f4xx_usart.o(.text)
    USART_OneBitMethodCmd                    0x08008d95   Thumb Code    20  stm32f4xx_usart.o(.text)
    USART_SendData                           0x08008da9   Thumb Code     8  stm32f4xx_usart.o(.text)
    USART_ReceiveData                        0x08008db1   Thumb Code     8  stm32f4xx_usart.o(.text)
    USART_SetAddress                         0x08008db9   Thumb Code    16  stm32f4xx_usart.o(.text)
    USART_ReceiverWakeUpCmd                  0x08008dc9   Thumb Code    20  stm32f4xx_usart.o(.text)
    USART_WakeUpConfig                       0x08008ddd   Thumb Code    16  stm32f4xx_usart.o(.text)
    USART_LINBreakDetectLengthConfig         0x08008ded   Thumb Code    16  stm32f4xx_usart.o(.text)
    USART_LINCmd                             0x08008dfd   Thumb Code    20  stm32f4xx_usart.o(.text)
    USART_SendBreak                          0x08008e11   Thumb Code    10  stm32f4xx_usart.o(.text)
    USART_HalfDuplexCmd                      0x08008e1b   Thumb Code    20  stm32f4xx_usart.o(.text)
    USART_SetGuardTime                       0x08008e2f   Thumb Code    16  stm32f4xx_usart.o(.text)
    USART_SmartCardCmd                       0x08008e3f   Thumb Code    20  stm32f4xx_usart.o(.text)
    USART_SmartCardNACKCmd                   0x08008e53   Thumb Code    20  stm32f4xx_usart.o(.text)
    USART_IrDAConfig                         0x08008e67   Thumb Code    16  stm32f4xx_usart.o(.text)
    USART_IrDACmd                            0x08008e77   Thumb Code    20  stm32f4xx_usart.o(.text)
    USART_DMACmd                             0x08008e8b   Thumb Code    16  stm32f4xx_usart.o(.text)
    USART_ITConfig                           0x08008e9b   Thumb Code    48  stm32f4xx_usart.o(.text)
    USART_GetFlagStatus                      0x08008ecb   Thumb Code    14  stm32f4xx_usart.o(.text)
    USART_ClearFlag                          0x08008ed9   Thumb Code     6  stm32f4xx_usart.o(.text)
    USART_GetITStatus                        0x08008edf   Thumb Code    62  stm32f4xx_usart.o(.text)
    USART_ClearITPendingBit                  0x08008f1d   Thumb Code    12  stm32f4xx_usart.o(.text)
    FSMC_NORSRAMDeInit                       0x08008f49   Thumb Code    38  stm32f4xx_fsmc.o(.text)
    FSMC_NORSRAMInit                         0x08008f6f   Thumb Code   200  stm32f4xx_fsmc.o(.text)
    FSMC_NORSRAMStructInit                   0x08009037   Thumb Code    42  stm32f4xx_fsmc.o(.text)
    FSMC_NORSRAMCmd                          0x08009061   Thumb Code    26  stm32f4xx_fsmc.o(.text)
    FSMC_NANDDeInit                          0x0800907b   Thumb Code    40  stm32f4xx_fsmc.o(.text)
    FSMC_NANDInit                            0x080090a3   Thumb Code   104  stm32f4xx_fsmc.o(.text)
    FSMC_NANDStructInit                      0x0800910b   Thumb Code    54  stm32f4xx_fsmc.o(.text)
    FSMC_NANDCmd                             0x08009141   Thumb Code    54  stm32f4xx_fsmc.o(.text)
    FSMC_NANDECCCmd                          0x08009177   Thumb Code    54  stm32f4xx_fsmc.o(.text)
    FSMC_GetECC                              0x080091ad   Thumb Code    18  stm32f4xx_fsmc.o(.text)
    FSMC_PCCARDDeInit                        0x080091bf   Thumb Code    26  stm32f4xx_fsmc.o(.text)
    FSMC_PCCARDInit                          0x080091d9   Thumb Code   102  stm32f4xx_fsmc.o(.text)
    FSMC_PCCARDStructInit                    0x0800923f   Thumb Code    60  stm32f4xx_fsmc.o(.text)
    FSMC_PCCARDCmd                           0x0800927b   Thumb Code    28  stm32f4xx_fsmc.o(.text)
    FSMC_ITConfig                            0x08009297   Thumb Code    72  stm32f4xx_fsmc.o(.text)
    FSMC_GetFlagStatus                       0x080092df   Thumb Code    40  stm32f4xx_fsmc.o(.text)
    FSMC_ClearFlag                           0x08009307   Thumb Code    38  stm32f4xx_fsmc.o(.text)
    FSMC_GetITStatus                         0x0800932d   Thumb Code    48  stm32f4xx_fsmc.o(.text)
    FSMC_ClearITPendingBit                   0x0800935d   Thumb Code    42  stm32f4xx_fsmc.o(.text)
    PWR_DeInit                               0x08009391   Thumb Code    24  stm32f4xx_pwr.o(.text)
    PWR_BackupAccessCmd                      0x080093a9   Thumb Code     6  stm32f4xx_pwr.o(.text)
    PWR_PVDLevelConfig                       0x080093af   Thumb Code    14  stm32f4xx_pwr.o(.text)
    PWR_PVDCmd                               0x080093bd   Thumb Code     6  stm32f4xx_pwr.o(.text)
    PWR_WakeUpPinCmd                         0x080093c3   Thumb Code     8  stm32f4xx_pwr.o(.text)
    PWR_BackupRegulatorCmd                   0x080093cb   Thumb Code     8  stm32f4xx_pwr.o(.text)
    PWR_MainRegulatorModeConfig              0x080093d3   Thumb Code    14  stm32f4xx_pwr.o(.text)
    PWR_OverDriveCmd                         0x080093e1   Thumb Code     6  stm32f4xx_pwr.o(.text)
    PWR_OverDriveSWCmd                       0x080093e7   Thumb Code     6  stm32f4xx_pwr.o(.text)
    PWR_UnderDriveCmd                        0x080093ed   Thumb Code    22  stm32f4xx_pwr.o(.text)
    PWR_MainRegulatorLowVoltageCmd           0x08009403   Thumb Code    10  stm32f4xx_pwr.o(.text)
    PWR_LowRegulatorLowVoltageCmd            0x0800940d   Thumb Code    10  stm32f4xx_pwr.o(.text)
    PWR_FlashPowerDownCmd                    0x08009417   Thumb Code     6  stm32f4xx_pwr.o(.text)
    PWR_EnterSTOPMode                        0x0800941d   Thumb Code    46  stm32f4xx_pwr.o(.text)
    PWR_EnterUnderDriveSTOPMode              0x0800944b   Thumb Code    46  stm32f4xx_pwr.o(.text)
    PWR_EnterSTANDBYMode                     0x08009479   Thumb Code    24  stm32f4xx_pwr.o(.text)
    PWR_GetFlagStatus                        0x08009491   Thumb Code    16  stm32f4xx_pwr.o(.text)
    PWR_ClearFlag                            0x080094a1   Thumb Code    12  stm32f4xx_pwr.o(.text)
    RTC_WaitForSynchro                       0x080094b9   Thumb Code    70  stm32f4xx_rtc.o(.text)
    RTC_EnterInitMode                        0x080094ff   Thumb Code    58  stm32f4xx_rtc.o(.text)
    RTC_DeInit                               0x08009539   Thumb Code   168  stm32f4xx_rtc.o(.text)
    RTC_ExitInitMode                         0x080095e1   Thumb Code    14  stm32f4xx_rtc.o(.text)
    RTC_Init                                 0x080095ef   Thumb Code    74  stm32f4xx_rtc.o(.text)
    RTC_StructInit                           0x08009639   Thumb Code    14  stm32f4xx_rtc.o(.text)
    RTC_WriteProtectionCmd                   0x08009647   Thumb Code    18  stm32f4xx_rtc.o(.text)
    RTC_RefClockCmd                          0x08009659   Thumb Code    56  stm32f4xx_rtc.o(.text)
    RTC_BypassShadowCmd                      0x08009691   Thumb Code    38  stm32f4xx_rtc.o(.text)
    RTC_SetTime                              0x080096b7   Thumb Code   148  stm32f4xx_rtc.o(.text)
    RTC_TimeStructInit                       0x0800974b   Thumb Code    12  stm32f4xx_rtc.o(.text)
    RTC_GetTime                              0x08009757   Thumb Code    70  stm32f4xx_rtc.o(.text)
    RTC_GetSubSecond                         0x0800979d   Thumb Code    14  stm32f4xx_rtc.o(.text)
    RTC_SetDate                              0x080097ab   Thumb Code   142  stm32f4xx_rtc.o(.text)
    RTC_DateStructInit                       0x08009839   Thumb Code    14  stm32f4xx_rtc.o(.text)
    RTC_GetDate                              0x08009847   Thumb Code    66  stm32f4xx_rtc.o(.text)
    RTC_SetAlarm                             0x08009889   Thumb Code   184  stm32f4xx_rtc.o(.text)
    RTC_AlarmStructInit                      0x08009941   Thumb Code    20  stm32f4xx_rtc.o(.text)
    RTC_GetAlarm                             0x08009955   Thumb Code   104  stm32f4xx_rtc.o(.text)
    RTC_AlarmCmd                             0x080099bd   Thumb Code    78  stm32f4xx_rtc.o(.text)
    RTC_AlarmSubSecondConfig                 0x08009a0b   Thumb Code    38  stm32f4xx_rtc.o(.text)
    RTC_GetAlarmSubSecond                    0x08009a31   Thumb Code    24  stm32f4xx_rtc.o(.text)
    RTC_WakeUpClockConfig                    0x08009a49   Thumb Code    34  stm32f4xx_rtc.o(.text)
    RTC_SetWakeUpCounter                     0x08009a6b   Thumb Code    22  stm32f4xx_rtc.o(.text)
    RTC_GetWakeUpCounter                     0x08009a81   Thumb Code    10  stm32f4xx_rtc.o(.text)
    RTC_WakeUpCmd                            0x08009a8b   Thumb Code    84  stm32f4xx_rtc.o(.text)
    RTC_DayLightSavingConfig                 0x08009adf   Thumb Code    38  stm32f4xx_rtc.o(.text)
    RTC_GetStoreOperation                    0x08009b05   Thumb Code    12  stm32f4xx_rtc.o(.text)
    RTC_OutputConfig                         0x08009b11   Thumb Code    38  stm32f4xx_rtc.o(.text)
    RTC_CoarseCalibConfig                    0x08009b37   Thumb Code    46  stm32f4xx_rtc.o(.text)
    RTC_CoarseCalibCmd                       0x08009b65   Thumb Code    56  stm32f4xx_rtc.o(.text)
    RTC_CalibOutputCmd                       0x08009b9d   Thumb Code    38  stm32f4xx_rtc.o(.text)
    RTC_CalibOutputConfig                    0x08009bc3   Thumb Code    34  stm32f4xx_rtc.o(.text)
    RTC_SmoothCalibConfig                    0x08009be5   Thumb Code    70  stm32f4xx_rtc.o(.text)
    RTC_TimeStampCmd                         0x08009c2b   Thumb Code    42  stm32f4xx_rtc.o(.text)
    RTC_GetTimeStamp                         0x08009c55   Thumb Code   130  stm32f4xx_rtc.o(.text)
    RTC_GetTimeStampSubSecond                0x08009cd7   Thumb Code     8  stm32f4xx_rtc.o(.text)
    RTC_TamperTriggerConfig                  0x08009cdf   Thumb Code    24  stm32f4xx_rtc.o(.text)
    RTC_TamperCmd                            0x08009cf7   Thumb Code    28  stm32f4xx_rtc.o(.text)
    RTC_TamperFilterConfig                   0x08009d13   Thumb Code    18  stm32f4xx_rtc.o(.text)
    RTC_TamperSamplingFreqConfig             0x08009d25   Thumb Code    18  stm32f4xx_rtc.o(.text)
    RTC_TamperPinsPrechargeDuration          0x08009d37   Thumb Code    18  stm32f4xx_rtc.o(.text)
    RTC_TimeStampOnTamperDetectionCmd        0x08009d49   Thumb Code    22  stm32f4xx_rtc.o(.text)
    RTC_TamperPullUpCmd                      0x08009d5f   Thumb Code    22  stm32f4xx_rtc.o(.text)
    RTC_WriteBackupRegister                  0x08009d75   Thumb Code    16  stm32f4xx_rtc.o(.text)
    RTC_ReadBackupRegister                   0x08009d85   Thumb Code    16  stm32f4xx_rtc.o(.text)
    RTC_TamperPinSelection                   0x08009d95   Thumb Code    18  stm32f4xx_rtc.o(.text)
    RTC_TimeStampPinSelection                0x08009da7   Thumb Code    18  stm32f4xx_rtc.o(.text)
    RTC_OutputTypeConfig                     0x08009db9   Thumb Code    18  stm32f4xx_rtc.o(.text)
    RTC_SynchroShiftConfig                   0x08009dcb   Thumb Code    84  stm32f4xx_rtc.o(.text)
    RTC_ITConfig                             0x08009e1f   Thumb Code    60  stm32f4xx_rtc.o(.text)
    RTC_GetFlagStatus                        0x08009e5b   Thumb Code    22  stm32f4xx_rtc.o(.text)
    RTC_ClearFlag                            0x08009e71   Thumb Code    24  stm32f4xx_rtc.o(.text)
    RTC_GetITStatus                          0x08009e89   Thumb Code    46  stm32f4xx_rtc.o(.text)
    RTC_ClearITPendingBit                    0x08009eb7   Thumb Code    24  stm32f4xx_rtc.o(.text)
    ADC_DeInit                               0x08009f05   Thumb Code    24  stm32f4xx_adc.o(.text)
    ADC_Init                                 0x08009f1d   Thumb Code    66  stm32f4xx_adc.o(.text)
    ADC_StructInit                           0x08009f5f   Thumb Code    20  stm32f4xx_adc.o(.text)
    ADC_CommonInit                           0x08009f73   Thumb Code    34  stm32f4xx_adc.o(.text)
    ADC_CommonStructInit                     0x08009f95   Thumb Code    12  stm32f4xx_adc.o(.text)
    ADC_Cmd                                  0x08009fa1   Thumb Code    20  stm32f4xx_adc.o(.text)
    ADC_AnalogWatchdogCmd                    0x08009fb5   Thumb Code    12  stm32f4xx_adc.o(.text)
    ADC_AnalogWatchdogThresholdsConfig       0x08009fc1   Thumb Code     6  stm32f4xx_adc.o(.text)
    ADC_AnalogWatchdogSingleChannelConfig    0x08009fc7   Thumb Code    12  stm32f4xx_adc.o(.text)
    ADC_TempSensorVrefintCmd                 0x08009fd3   Thumb Code    26  stm32f4xx_adc.o(.text)
    ADC_VBATCmd                              0x08009fed   Thumb Code    26  stm32f4xx_adc.o(.text)
    ADC_RegularChannelConfig                 0x0800a007   Thumb Code   116  stm32f4xx_adc.o(.text)
    ADC_SoftwareStartConv                    0x0800a07b   Thumb Code    10  stm32f4xx_adc.o(.text)
    ADC_GetSoftwareStartConvStatus           0x0800a085   Thumb Code    14  stm32f4xx_adc.o(.text)
    ADC_EOCOnEachRegularChannelCmd           0x0800a093   Thumb Code    20  stm32f4xx_adc.o(.text)
    ADC_ContinuousModeCmd                    0x0800a0a7   Thumb Code    20  stm32f4xx_adc.o(.text)
    ADC_DiscModeChannelCountConfig           0x0800a0bb   Thumb Code    16  stm32f4xx_adc.o(.text)
    ADC_DiscModeCmd                          0x0800a0cb   Thumb Code    20  stm32f4xx_adc.o(.text)
    ADC_GetConversionValue                   0x0800a0df   Thumb Code     6  stm32f4xx_adc.o(.text)
    ADC_GetMultiModeConversionValue          0x0800a0e5   Thumb Code     8  stm32f4xx_adc.o(.text)
    ADC_DMACmd                               0x0800a0ed   Thumb Code    20  stm32f4xx_adc.o(.text)
    ADC_DMARequestAfterLastTransferCmd       0x0800a101   Thumb Code    20  stm32f4xx_adc.o(.text)
    ADC_MultiModeDMARequestAfterLastTransferCmd 0x0800a115   Thumb Code    26  stm32f4xx_adc.o(.text)
    ADC_InjectedChannelConfig                0x0800a12f   Thumb Code    74  stm32f4xx_adc.o(.text)
    ADC_InjectedSequencerLengthConfig        0x0800a179   Thumb Code    16  stm32f4xx_adc.o(.text)
    ADC_SetInjectedOffset                    0x0800a189   Thumb Code    10  stm32f4xx_adc.o(.text)
    ADC_ExternalTrigInjectedConvConfig       0x0800a193   Thumb Code    12  stm32f4xx_adc.o(.text)
    ADC_ExternalTrigInjectedConvEdgeConfig   0x0800a19f   Thumb Code    12  stm32f4xx_adc.o(.text)
    ADC_SoftwareStartInjectedConv            0x0800a1ab   Thumb Code    10  stm32f4xx_adc.o(.text)
    ADC_GetSoftwareStartInjectedConvCmdStatus 0x0800a1b5   Thumb Code    14  stm32f4xx_adc.o(.text)
    ADC_AutoInjectedConvCmd                  0x0800a1c3   Thumb Code    20  stm32f4xx_adc.o(.text)
    ADC_InjectedDiscModeCmd                  0x0800a1d7   Thumb Code    20  stm32f4xx_adc.o(.text)
    ADC_GetInjectedConversionValue           0x0800a1eb   Thumb Code    14  stm32f4xx_adc.o(.text)
    ADC_ITConfig                             0x0800a1f9   Thumb Code    18  stm32f4xx_adc.o(.text)
    ADC_GetFlagStatus                        0x0800a20b   Thumb Code    14  stm32f4xx_adc.o(.text)
    ADC_ClearFlag                            0x0800a219   Thumb Code     6  stm32f4xx_adc.o(.text)
    ADC_GetITStatus                          0x0800a21f   Thumb Code    30  stm32f4xx_adc.o(.text)
    ADC_ClearITPendingBit                    0x0800a23d   Thumb Code     8  stm32f4xx_adc.o(.text)
    Reset_Handler                            0x0800a259   Thumb Code     8  startup_stm32f40_41xxx.o(.text)
    ADC_IRQHandler                           0x0800a273   Thumb Code     0  startup_stm32f40_41xxx.o(.text)
    CAN1_RX0_IRQHandler                      0x0800a273   Thumb Code     0  startup_stm32f40_41xxx.o(.text)
    CAN1_RX1_IRQHandler                      0x0800a273   Thumb Code     0  startup_stm32f40_41xxx.o(.text)
    CAN1_SCE_IRQHandler                      0x0800a273   Thumb Code     0  startup_stm32f40_41xxx.o(.text)
    CAN1_TX_IRQHandler                       0x0800a273   Thumb Code     0  startup_stm32f40_41xxx.o(.text)
    CAN2_RX0_IRQHandler                      0x0800a273   Thumb Code     0  startup_stm32f40_41xxx.o(.text)
    CAN2_RX1_IRQHandler                      0x0800a273   Thumb Code     0  startup_stm32f40_41xxx.o(.text)
    CAN2_SCE_IRQHandler                      0x0800a273   Thumb Code     0  startup_stm32f40_41xxx.o(.text)
    CAN2_TX_IRQHandler                       0x0800a273   Thumb Code     0  startup_stm32f40_41xxx.o(.text)
    CRYP_IRQHandler                          0x0800a273   Thumb Code     0  startup_stm32f40_41xxx.o(.text)
    DCMI_IRQHandler                          0x0800a273   Thumb Code     0  startup_stm32f40_41xxx.o(.text)
    DMA1_Stream0_IRQHandler                  0x0800a273   Thumb Code     0  startup_stm32f40_41xxx.o(.text)
    DMA1_Stream1_IRQHandler                  0x0800a273   Thumb Code     0  startup_stm32f40_41xxx.o(.text)
    DMA1_Stream2_IRQHandler                  0x0800a273   Thumb Code     0  startup_stm32f40_41xxx.o(.text)
    DMA1_Stream3_IRQHandler                  0x0800a273   Thumb Code     0  startup_stm32f40_41xxx.o(.text)
    DMA1_Stream4_IRQHandler                  0x0800a273   Thumb Code     0  startup_stm32f40_41xxx.o(.text)
    DMA1_Stream5_IRQHandler                  0x0800a273   Thumb Code     0  startup_stm32f40_41xxx.o(.text)
    DMA1_Stream6_IRQHandler                  0x0800a273   Thumb Code     0  startup_stm32f40_41xxx.o(.text)
    DMA1_Stream7_IRQHandler                  0x0800a273   Thumb Code     0  startup_stm32f40_41xxx.o(.text)
    DMA2_Stream0_IRQHandler                  0x0800a273   Thumb Code     0  startup_stm32f40_41xxx.o(.text)
    DMA2_Stream1_IRQHandler                  0x0800a273   Thumb Code     0  startup_stm32f40_41xxx.o(.text)
    DMA2_Stream2_IRQHandler                  0x0800a273   Thumb Code     0  startup_stm32f40_41xxx.o(.text)
    DMA2_Stream3_IRQHandler                  0x0800a273   Thumb Code     0  startup_stm32f40_41xxx.o(.text)
    DMA2_Stream4_IRQHandler                  0x0800a273   Thumb Code     0  startup_stm32f40_41xxx.o(.text)
    DMA2_Stream5_IRQHandler                  0x0800a273   Thumb Code     0  startup_stm32f40_41xxx.o(.text)
    DMA2_Stream6_IRQHandler                  0x0800a273   Thumb Code     0  startup_stm32f40_41xxx.o(.text)
    DMA2_Stream7_IRQHandler                  0x0800a273   Thumb Code     0  startup_stm32f40_41xxx.o(.text)
    ETH_IRQHandler                           0x0800a273   Thumb Code     0  startup_stm32f40_41xxx.o(.text)
    ETH_WKUP_IRQHandler                      0x0800a273   Thumb Code     0  startup_stm32f40_41xxx.o(.text)
    EXTI15_10_IRQHandler                     0x0800a273   Thumb Code     0  startup_stm32f40_41xxx.o(.text)
    EXTI1_IRQHandler                         0x0800a273   Thumb Code     0  startup_stm32f40_41xxx.o(.text)
    EXTI3_IRQHandler                         0x0800a273   Thumb Code     0  startup_stm32f40_41xxx.o(.text)
    EXTI9_5_IRQHandler                       0x0800a273   Thumb Code     0  startup_stm32f40_41xxx.o(.text)
    FLASH_IRQHandler                         0x0800a273   Thumb Code     0  startup_stm32f40_41xxx.o(.text)
    FPU_IRQHandler                           0x0800a273   Thumb Code     0  startup_stm32f40_41xxx.o(.text)
    FSMC_IRQHandler                          0x0800a273   Thumb Code     0  startup_stm32f40_41xxx.o(.text)
    HASH_RNG_IRQHandler                      0x0800a273   Thumb Code     0  startup_stm32f40_41xxx.o(.text)
    I2C1_ER_IRQHandler                       0x0800a273   Thumb Code     0  startup_stm32f40_41xxx.o(.text)
    I2C1_EV_IRQHandler                       0x0800a273   Thumb Code     0  startup_stm32f40_41xxx.o(.text)
    I2C2_ER_IRQHandler                       0x0800a273   Thumb Code     0  startup_stm32f40_41xxx.o(.text)
    I2C2_EV_IRQHandler                       0x0800a273   Thumb Code     0  startup_stm32f40_41xxx.o(.text)
    I2C3_ER_IRQHandler                       0x0800a273   Thumb Code     0  startup_stm32f40_41xxx.o(.text)
    I2C3_EV_IRQHandler                       0x0800a273   Thumb Code     0  startup_stm32f40_41xxx.o(.text)
    OTG_FS_IRQHandler                        0x0800a273   Thumb Code     0  startup_stm32f40_41xxx.o(.text)
    OTG_FS_WKUP_IRQHandler                   0x0800a273   Thumb Code     0  startup_stm32f40_41xxx.o(.text)
    OTG_HS_EP1_IN_IRQHandler                 0x0800a273   Thumb Code     0  startup_stm32f40_41xxx.o(.text)
    OTG_HS_EP1_OUT_IRQHandler                0x0800a273   Thumb Code     0  startup_stm32f40_41xxx.o(.text)
    OTG_HS_IRQHandler                        0x0800a273   Thumb Code     0  startup_stm32f40_41xxx.o(.text)
    OTG_HS_WKUP_IRQHandler                   0x0800a273   Thumb Code     0  startup_stm32f40_41xxx.o(.text)
    PVD_IRQHandler                           0x0800a273   Thumb Code     0  startup_stm32f40_41xxx.o(.text)
    RCC_IRQHandler                           0x0800a273   Thumb Code     0  startup_stm32f40_41xxx.o(.text)
    RTC_Alarm_IRQHandler                     0x0800a273   Thumb Code     0  startup_stm32f40_41xxx.o(.text)
    RTC_WKUP_IRQHandler                      0x0800a273   Thumb Code     0  startup_stm32f40_41xxx.o(.text)
    SDIO_IRQHandler                          0x0800a273   Thumb Code     0  startup_stm32f40_41xxx.o(.text)
    SPI1_IRQHandler                          0x0800a273   Thumb Code     0  startup_stm32f40_41xxx.o(.text)
    SPI2_IRQHandler                          0x0800a273   Thumb Code     0  startup_stm32f40_41xxx.o(.text)
    SPI3_IRQHandler                          0x0800a273   Thumb Code     0  startup_stm32f40_41xxx.o(.text)
    TAMP_STAMP_IRQHandler                    0x0800a273   Thumb Code     0  startup_stm32f40_41xxx.o(.text)
    TIM1_BRK_TIM9_IRQHandler                 0x0800a273   Thumb Code     0  startup_stm32f40_41xxx.o(.text)
    TIM1_CC_IRQHandler                       0x0800a273   Thumb Code     0  startup_stm32f40_41xxx.o(.text)
    TIM1_TRG_COM_TIM11_IRQHandler            0x0800a273   Thumb Code     0  startup_stm32f40_41xxx.o(.text)
    TIM1_UP_TIM10_IRQHandler                 0x0800a273   Thumb Code     0  startup_stm32f40_41xxx.o(.text)
    TIM2_IRQHandler                          0x0800a273   Thumb Code     0  startup_stm32f40_41xxx.o(.text)
    TIM4_IRQHandler                          0x0800a273   Thumb Code     0  startup_stm32f40_41xxx.o(.text)
    TIM5_IRQHandler                          0x0800a273   Thumb Code     0  startup_stm32f40_41xxx.o(.text)
    TIM6_DAC_IRQHandler                      0x0800a273   Thumb Code     0  startup_stm32f40_41xxx.o(.text)
    TIM7_IRQHandler                          0x0800a273   Thumb Code     0  startup_stm32f40_41xxx.o(.text)
    TIM8_BRK_TIM12_IRQHandler                0x0800a273   Thumb Code     0  startup_stm32f40_41xxx.o(.text)
    TIM8_CC_IRQHandler                       0x0800a273   Thumb Code     0  startup_stm32f40_41xxx.o(.text)
    TIM8_TRG_COM_TIM14_IRQHandler            0x0800a273   Thumb Code     0  startup_stm32f40_41xxx.o(.text)
    TIM8_UP_TIM13_IRQHandler                 0x0800a273   Thumb Code     0  startup_stm32f40_41xxx.o(.text)
    UART4_IRQHandler                         0x0800a273   Thumb Code     0  startup_stm32f40_41xxx.o(.text)
    UART5_IRQHandler                         0x0800a273   Thumb Code     0  startup_stm32f40_41xxx.o(.text)
    USART6_IRQHandler                        0x0800a273   Thumb Code     0  startup_stm32f40_41xxx.o(.text)
    WWDG_IRQHandler                          0x0800a273   Thumb Code     0  startup_stm32f40_41xxx.o(.text)
    lv_disp_get_scr_act                      0x0800a27d   Thumb Code    16  lv_disp.o(.text)
    lv_disp_get_scr_prev                     0x0800a28d   Thumb Code    16  lv_disp.o(.text)
    lv_scr_load_anim                         0x0800a37d   Thumb Code   574  lv_disp.o(.text)
    lv_disp_load_scr                         0x0800a5bb   Thumb Code    16  lv_disp.o(.text)
    lv_disp_get_layer_top                    0x0800a5cb   Thumb Code    16  lv_disp.o(.text)
    lv_disp_get_layer_sys                    0x0800a5db   Thumb Code    16  lv_disp.o(.text)
    lv_disp_set_theme                        0x0800a5eb   Thumb Code    74  lv_disp.o(.text)
    lv_disp_get_theme                        0x0800a635   Thumb Code    12  lv_disp.o(.text)
    lv_disp_set_bg_color                     0x0800a641   Thumb Code    66  lv_disp.o(.text)
    lv_disp_set_bg_image                     0x0800a683   Thumb Code    58  lv_disp.o(.text)
    lv_disp_set_bg_opa                       0x0800a6bd   Thumb Code    60  lv_disp.o(.text)
    lv_disp_get_inactive_time                0x0800a6f9   Thumb Code    54  lv_disp.o(.text)
    lv_disp_trig_activity                    0x0800a72f   Thumb Code    24  lv_disp.o(.text)
    lv_disp_clean_dcache                     0x0800a747   Thumb Code    28  lv_disp.o(.text)
    lv_disp_enable_invalidation              0x0800a763   Thumb Code    36  lv_disp.o(.text)
    lv_disp_is_invalidation_enabled          0x0800a787   Thumb Code    28  lv_disp.o(.text)
    _lv_disp_get_refr_timer                  0x0800a7a3   Thumb Code    16  lv_disp.o(.text)
    lv_obj_event_base                        0x0800a7d5   Thumb Code    44  lv_event.o(.text)
    lv_event_send                            0x0800a921   Thumb Code    60  lv_event.o(.text)
    lv_event_get_target                      0x0800a95d   Thumb Code     4  lv_event.o(.text)
    lv_event_get_current_target              0x0800a961   Thumb Code     4  lv_event.o(.text)
    lv_event_get_code                        0x0800a965   Thumb Code     8  lv_event.o(.text)
    lv_event_get_param                       0x0800a96d   Thumb Code     4  lv_event.o(.text)
    lv_event_get_user_data                   0x0800a971   Thumb Code     4  lv_event.o(.text)
    lv_event_stop_bubbling                   0x0800a975   Thumb Code    10  lv_event.o(.text)
    lv_event_stop_processing                 0x0800a97f   Thumb Code    10  lv_event.o(.text)
    lv_event_register_id                     0x0800a989   Thumb Code    10  lv_event.o(.text)
    _lv_event_mark_deleted                   0x0800a993   Thumb Code    34  lv_event.o(.text)
    lv_obj_add_event_cb                      0x0800a9b5   Thumb Code   152  lv_event.o(.text)
    lv_obj_remove_event_cb                   0x0800aa4d   Thumb Code   128  lv_event.o(.text)
    lv_obj_remove_event_cb_with_user_data    0x0800aacd   Thumb Code   150  lv_event.o(.text)
    lv_obj_remove_event_dsc                  0x0800ab63   Thumb Code   126  lv_event.o(.text)
    lv_obj_get_event_user_data               0x0800abe1   Thumb Code    56  lv_event.o(.text)
    lv_event_get_indev                       0x0800ac19   Thumb Code    74  lv_event.o(.text)
    lv_event_get_draw_part_dsc               0x0800ac63   Thumb Code    18  lv_event.o(.text)
    lv_event_get_draw_ctx                    0x0800ac75   Thumb Code    34  lv_event.o(.text)
    lv_event_get_old_size                    0x0800ac97   Thumb Code    14  lv_event.o(.text)
    lv_event_get_key                         0x0800aca5   Thumb Code    20  lv_event.o(.text)
    lv_event_get_scroll_anim                 0x0800acb9   Thumb Code    14  lv_event.o(.text)
    lv_event_set_ext_draw_size               0x0800acc7   Thumb Code    22  lv_event.o(.text)
    lv_event_get_self_size_info              0x0800acdd   Thumb Code    14  lv_event.o(.text)
    lv_event_get_hit_test_info               0x0800aceb   Thumb Code    14  lv_event.o(.text)
    lv_event_get_cover_area                  0x0800acf9   Thumb Code    16  lv_event.o(.text)
    lv_event_set_cover_res                   0x0800ad09   Thumb Code    18  lv_event.o(.text)
    _lv_group_init                           0x0800ad41   Thumb Code     8  lv_group.o(.text)
    lv_group_create                          0x0800ad49   Thumb Code    46  lv_group.o(.text)
    lv_group_del                             0x0800adc3   Thumb Code   128  lv_group.o(.text)
    lv_group_set_default                     0x0800ae43   Thumb Code     6  lv_group.o(.text)
    lv_group_get_default                     0x0800ae49   Thumb Code     6  lv_group.o(.text)
    lv_group_focus_prev                      0x0800af3d   Thumb Code    34  lv_group.o(.text)
    lv_group_focus_next                      0x0800af5f   Thumb Code    34  lv_group.o(.text)
    lv_group_remove_obj                      0x0800afab   Thumb Code   150  lv_group.o(.text)
    lv_group_add_obj                         0x0800b041   Thumb Code   112  lv_group.o(.text)
    lv_group_get_focused                     0x0800b0b1   Thumb Code    14  lv_group.o(.text)
    lv_group_set_editing                     0x0800b0bf   Thumb Code    66  lv_group.o(.text)
    lv_group_focus_obj                       0x0800b101   Thumb Code   168  lv_group.o(.text)
    lv_group_swap_obj                        0x0800b1a9   Thumb Code    86  lv_group.o(.text)
    lv_group_remove_all_objs                 0x0800b1ff   Thumb Code    74  lv_group.o(.text)
    lv_group_focus_freeze                    0x0800b249   Thumb Code    18  lv_group.o(.text)
    lv_group_send_data                       0x0800b25b   Thumb Code    34  lv_group.o(.text)
    lv_group_set_focus_cb                    0x0800b27d   Thumb Code     4  lv_group.o(.text)
    lv_group_set_edge_cb                     0x0800b281   Thumb Code     4  lv_group.o(.text)
    lv_group_set_refocus_policy              0x0800b285   Thumb Code    10  lv_group.o(.text)
    lv_group_set_wrap                        0x0800b28f   Thumb Code    10  lv_group.o(.text)
    lv_group_get_focus_cb                    0x0800b299   Thumb Code     8  lv_group.o(.text)
    lv_group_get_edge_cb                     0x0800b2a1   Thumb Code     8  lv_group.o(.text)
    lv_group_get_editing                     0x0800b2a9   Thumb Code    12  lv_group.o(.text)
    lv_group_get_wrap                        0x0800b2b5   Thumb Code    12  lv_group.o(.text)
    lv_group_get_obj_count                   0x0800b2c1   Thumb Code     4  lv_group.o(.text)
    lv_indev_search_obj                      0x0800b59f   Thumb Code   110  lv_indev.o(.text)
    lv_indev_read_timer_cb                   0x0800bdb3   Thumb Code   172  lv_indev.o(.text)
    lv_indev_enable                          0x0800be5f   Thumb Code    36  lv_indev.o(.text)
    lv_indev_get_act                         0x0800be83   Thumb Code     6  lv_indev.o(.text)
    lv_indev_get_type                        0x0800be89   Thumb Code    10  lv_indev.o(.text)
    lv_indev_reset                           0x0800be93   Thumb Code   132  lv_indev.o(.text)
    lv_indev_reset_long_press                0x0800bf17   Thumb Code    26  lv_indev.o(.text)
    lv_indev_set_cursor                      0x0800bf31   Thumb Code    66  lv_indev.o(.text)
    lv_indev_set_group                       0x0800bf73   Thumb Code    16  lv_indev.o(.text)
    lv_indev_set_button_points               0x0800bf83   Thumb Code    12  lv_indev.o(.text)
    lv_indev_get_point                       0x0800bf8f   Thumb Code    32  lv_indev.o(.text)
    lv_indev_get_gesture_dir                 0x0800bfaf   Thumb Code     8  lv_indev.o(.text)
    lv_indev_get_key                         0x0800bfb7   Thumb Code    16  lv_indev.o(.text)
    lv_indev_get_scroll_dir                  0x0800bfc7   Thumb Code    30  lv_indev.o(.text)
    lv_indev_get_scroll_obj                  0x0800bfe5   Thumb Code    24  lv_indev.o(.text)
    lv_indev_get_vect                        0x0800bffd   Thumb Code    32  lv_indev.o(.text)
    lv_indev_wait_release                    0x0800c01d   Thumb Code    14  lv_indev.o(.text)
    lv_indev_get_obj_act                     0x0800c02b   Thumb Code     6  lv_indev.o(.text)
    lv_indev_get_read_timer                  0x0800c031   Thumb Code     8  lv_indev.o(.text)
    _lv_indev_scroll_handler                 0x0800c81d   Thumb Code   366  lv_indev_scroll.o(.text)
    _lv_indev_scroll_throw_handler           0x0800c98b   Thumb Code   558  lv_indev_scroll.o(.text)
    lv_indev_scroll_throw_predict            0x0800cbb9   Thumb Code    60  lv_indev_scroll.o(.text)
    lv_indev_scroll_get_snap_dist            0x0800cbf5   Thumb Code    42  lv_indev_scroll.o(.text)
    lv_is_initialized                        0x0800cc81   Thumb Code     6  lv_obj.o(.text)
    lv_init                                  0x0800cc87   Thumb Code    96  lv_obj.o(.text)
    lv_deinit                                0x0800cce7   Thumb Code    24  lv_obj.o(.text)
    lv_obj_create                            0x0800ccff   Thumb Code    20  lv_obj.o(.text)
    lv_obj_get_group                         0x0800cd13   Thumb Code    10  lv_obj.o(.text)
    lv_obj_has_state                         0x0800cd1d   Thumb Code    10  lv_obj.o(.text)
    lv_obj_add_flag                          0x0800cd27   Thumb Code   136  lv_obj.o(.text)
    lv_obj_clear_flag                        0x0800cdaf   Thumb Code   116  lv_obj.o(.text)
    lv_obj_add_state                         0x0800cfbd   Thumb Code    12  lv_obj.o(.text)
    lv_obj_clear_state                       0x0800cfc9   Thumb Code    14  lv_obj.o(.text)
    lv_obj_has_flag                          0x0800cfd7   Thumb Code    14  lv_obj.o(.text)
    lv_obj_has_flag_any                      0x0800cfe5   Thumb Code    10  lv_obj.o(.text)
    lv_obj_get_state                         0x0800cfef   Thumb Code     4  lv_obj.o(.text)
    lv_obj_allocate_spec_attr                0x0800cff3   Thumb Code    54  lv_obj.o(.text)
    lv_obj_check_type                        0x0800d029   Thumb Code    18  lv_obj.o(.text)
    lv_obj_has_class                         0x0800d03b   Thumb Code    18  lv_obj.o(.text)
    lv_obj_get_class                         0x0800d04d   Thumb Code     4  lv_obj.o(.text)
    lv_obj_is_valid                          0x0800d09b   Thumb Code    54  lv_obj.o(.text)
    lv_obj_class_create_obj                  0x0800da59   Thumb Code   228  lv_obj_class.o(.text)
    lv_obj_is_group_def                      0x0800db3d   Thumb Code    28  lv_obj_class.o(.text)
    lv_obj_class_init_obj                    0x0800db7f   Thumb Code   116  lv_obj_class.o(.text)
    _lv_obj_destruct                         0x0800dbf3   Thumb Code    28  lv_obj_class.o(.text)
    lv_obj_is_editable                       0x0800dc0f   Thumb Code    26  lv_obj_class.o(.text)
    lv_obj_init_draw_rect_dsc                0x0800dc2d   Thumb Code   698  lv_obj_draw.o(.text)
    lv_obj_init_draw_label_dsc               0x0800dee7   Thumb Code   160  lv_obj_draw.o(.text)
    lv_obj_init_draw_img_dsc                 0x0800df87   Thumb Code   166  lv_obj_draw.o(.text)
    lv_obj_init_draw_line_dsc                0x0800e02d   Thumb Code   188  lv_obj_draw.o(.text)
    lv_obj_init_draw_arc_dsc                 0x0800e0e9   Thumb Code   162  lv_obj_draw.o(.text)
    lv_obj_calculate_ext_draw_size           0x0800e18b   Thumb Code   212  lv_obj_draw.o(.text)
    lv_obj_draw_dsc_init                     0x0800e25f   Thumb Code    16  lv_obj_draw.o(.text)
    lv_obj_draw_part_check_type              0x0800e26f   Thumb Code    20  lv_obj_draw.o(.text)
    _lv_obj_get_ext_draw_size                0x0800e283   Thumb Code    12  lv_obj_draw.o(.text)
    lv_obj_refresh_ext_draw_size             0x0800e28f   Thumb Code    80  lv_obj_draw.o(.text)
    _lv_obj_get_layer_type                   0x0800e2df   Thumb Code    12  lv_obj_draw.o(.text)
    lv_obj_set_y                             0x0800e391   Thumb Code    44  lv_obj_pos.o(.text)
    lv_obj_set_x                             0x0800e3bd   Thumb Code    44  lv_obj_pos.o(.text)
    lv_obj_set_pos                           0x0800e3e9   Thumb Code    20  lv_obj_pos.o(.text)
    lv_obj_transform_point                   0x0800e4fb   Thumb Code    92  lv_obj_pos.o(.text)
    lv_obj_get_transformed_area              0x0800e557   Thumb Code   358  lv_obj_pos.o(.text)
    lv_obj_area_is_visible                   0x0800e6bd   Thumb Code   244  lv_obj_pos.o(.text)
    lv_obj_invalidate_area                   0x0800e7b1   Thumb Code    52  lv_obj_pos.o(.text)
    lv_obj_invalidate                        0x0800e7e5   Thumb Code    70  lv_obj_pos.o(.text)
    lv_obj_get_coords                        0x0800e82b   Thumb Code    12  lv_obj_pos.o(.text)
    lv_obj_get_content_coords                0x0800e837   Thumb Code    92  lv_obj_pos.o(.text)
    lv_obj_get_height                        0x0800e893   Thumb Code     6  lv_obj_pos.o(.text)
    lv_obj_get_width                         0x0800e899   Thumb Code     6  lv_obj_pos.o(.text)
    lv_clamp_height                          0x0800e89f   Thumb Code   106  lv_obj_pos.o(.text)
    lv_obj_is_layout_positioned              0x0800e909   Thumb Code    40  lv_obj_pos.o(.text)
    lv_obj_get_self_height                   0x0800e931   Thumb Code    22  lv_obj_pos.o(.text)
    lv_obj_get_content_height                0x0800ea25   Thumb Code    54  lv_obj_pos.o(.text)
    lv_clamp_width                           0x0800ea5b   Thumb Code   106  lv_obj_pos.o(.text)
    lv_obj_get_self_width                    0x0800eac5   Thumb Code    22  lv_obj_pos.o(.text)
    lv_obj_get_content_width                 0x0800ec4d   Thumb Code    54  lv_obj_pos.o(.text)
    lv_obj_refr_size                         0x0800ec83   Thumb Code   700  lv_obj_pos.o(.text)
    lv_obj_set_height                        0x0800ef3f   Thumb Code    44  lv_obj_pos.o(.text)
    lv_obj_set_width                         0x0800ef6b   Thumb Code    44  lv_obj_pos.o(.text)
    lv_obj_set_size                          0x0800ef97   Thumb Code    20  lv_obj_pos.o(.text)
    lv_obj_set_content_width                 0x0800efab   Thumb Code    52  lv_obj_pos.o(.text)
    lv_obj_set_content_height                0x0800efdf   Thumb Code    52  lv_obj_pos.o(.text)
    lv_obj_mark_layout_as_dirty              0x0800f013   Thumb Code    42  lv_obj_pos.o(.text)
    lv_obj_set_layout                        0x0800f03d   Thumb Code    20  lv_obj_pos.o(.text)
    lv_obj_move_children_by                  0x0800f051   Thumb Code    96  lv_obj_pos.o(.text)
    lv_obj_move_to                           0x0800f0b1   Thumb Code   276  lv_obj_pos.o(.text)
    lv_obj_refr_pos                          0x0800f1c5   Thumb Code   454  lv_obj_pos.o(.text)
    lv_obj_update_layout                     0x0800f401   Thumb Code    46  lv_obj_pos.o(.text)
    lv_layout_register                       0x0800f42f   Thumb Code    46  lv_obj_pos.o(.text)
    lv_obj_set_align                         0x0800f45d   Thumb Code     6  lv_obj_pos.o(.text)
    lv_obj_align                             0x0800f463   Thumb Code    28  lv_obj_pos.o(.text)
    lv_obj_align_to                          0x0800f47f   Thumb Code   738  lv_obj_pos.o(.text)
    lv_obj_get_x                             0x0800f761   Thumb Code    56  lv_obj_pos.o(.text)
    lv_obj_get_x2                            0x0800f799   Thumb Code    32  lv_obj_pos.o(.text)
    lv_obj_get_y                             0x0800f7b9   Thumb Code    56  lv_obj_pos.o(.text)
    lv_obj_get_y2                            0x0800f7f1   Thumb Code    22  lv_obj_pos.o(.text)
    lv_obj_get_x_aligned                     0x0800f807   Thumb Code     6  lv_obj_pos.o(.text)
    lv_obj_get_y_aligned                     0x0800f80d   Thumb Code     6  lv_obj_pos.o(.text)
    lv_obj_refresh_self_size                 0x0800f813   Thumb Code    46  lv_obj_pos.o(.text)
    lv_obj_is_visible                        0x0800f841   Thumb Code    70  lv_obj_pos.o(.text)
    lv_obj_set_ext_click_area                0x0800f887   Thumb Code    16  lv_obj_pos.o(.text)
    lv_obj_get_click_area                    0x0800f897   Thumb Code    62  lv_obj_pos.o(.text)
    lv_obj_hit_test                          0x0800f8d5   Thumb Code    94  lv_obj_pos.o(.text)
    lv_obj_set_scrollbar_mode                0x0800f9ed   Thumb Code    40  lv_obj_scroll.o(.text)
    lv_obj_set_scroll_dir                    0x0800fa15   Thumb Code    26  lv_obj_scroll.o(.text)
    lv_obj_set_scroll_snap_x                 0x0800fa2f   Thumb Code    22  lv_obj_scroll.o(.text)
    lv_obj_set_scroll_snap_y                 0x0800fa45   Thumb Code    22  lv_obj_scroll.o(.text)
    lv_obj_get_scrollbar_mode                0x0800fa5b   Thumb Code    16  lv_obj_scroll.o(.text)
    lv_obj_get_scroll_dir                    0x0800fa6b   Thumb Code    16  lv_obj_scroll.o(.text)
    lv_obj_get_scroll_snap_x                 0x0800fa7b   Thumb Code    14  lv_obj_scroll.o(.text)
    lv_obj_get_scroll_snap_y                 0x0800fa89   Thumb Code    14  lv_obj_scroll.o(.text)
    lv_obj_get_scroll_x                      0x0800fa97   Thumb Code    14  lv_obj_scroll.o(.text)
    lv_obj_get_scroll_y                      0x0800faa5   Thumb Code    14  lv_obj_scroll.o(.text)
    lv_obj_get_scroll_top                    0x0800fab3   Thumb Code    14  lv_obj_scroll.o(.text)
    lv_obj_get_scroll_bottom                 0x0800fac1   Thumb Code   156  lv_obj_scroll.o(.text)
    lv_obj_get_scroll_left                   0x0800fb5d   Thumb Code   184  lv_obj_scroll.o(.text)
    lv_obj_get_scroll_right                  0x0800fc15   Thumb Code   176  lv_obj_scroll.o(.text)
    _lv_obj_scroll_by_raw                    0x0800fcc5   Thumb Code    72  lv_obj_scroll.o(.text)
    lv_obj_get_scroll_end                    0x0800fd39   Thumb Code    54  lv_obj_scroll.o(.text)
    lv_obj_scroll_by                         0x0800fd79   Thumb Code   270  lv_obj_scroll.o(.text)
    lv_obj_scroll_by_bounded                 0x0800fe87   Thumb Code   222  lv_obj_scroll.o(.text)
    lv_obj_scroll_to_y                       0x0800ff65   Thumb Code    36  lv_obj_scroll.o(.text)
    lv_obj_scroll_to_x                       0x0800ff89   Thumb Code    60  lv_obj_scroll.o(.text)
    lv_obj_scroll_to                         0x0800ffc5   Thumb Code    26  lv_obj_scroll.o(.text)
    lv_obj_scroll_to_view                    0x0801025f   Thumb Code    30  lv_obj_scroll.o(.text)
    lv_obj_scroll_to_view_recursive          0x0801027d   Thumb Code    56  lv_obj_scroll.o(.text)
    lv_obj_is_scrolling                      0x080102b5   Thumb Code    32  lv_obj_scroll.o(.text)
    lv_obj_update_snap                       0x080102d5   Thumb Code    36  lv_obj_scroll.o(.text)
    lv_obj_get_scrollbar_area                0x080102f9   Thumb Code  1620  lv_obj_scroll.o(.text)
    lv_obj_scrollbar_invalidate              0x0801094d   Thumb Code    66  lv_obj_scroll.o(.text)
    lv_obj_readjust_scroll                   0x0801098f   Thumb Code   146  lv_obj_scroll.o(.text)
    lv_obj_style_get_selector_state          0x08010a69   Thumb Code     4  lv_obj_style.o(.text)
    lv_obj_style_get_selector_part           0x08010a6d   Thumb Code     6  lv_obj_style.o(.text)
    lv_obj_get_style_prop                    0x08010b5f   Thumb Code   142  lv_obj_style.o(.text)
    _lv_obj_style_init                       0x08010bed   Thumb Code     8  lv_obj_style.o(.text)
    lv_obj_refresh_style                     0x08010c33   Thumb Code   330  lv_obj_style.o(.text)
    lv_obj_add_style                         0x08010e21   Thumb Code   170  lv_obj_style.o(.text)
    lv_obj_remove_style                      0x08010ecb   Thumb Code   248  lv_obj_style.o(.text)
    lv_obj_report_style_change               0x08011021   Thumb Code    52  lv_obj_style.o(.text)
    lv_obj_enable_style_refresh              0x08011055   Thumb Code     6  lv_obj_style.o(.text)
    lv_obj_set_local_style_prop              0x08011125   Thumb Code    38  lv_obj_style.o(.text)
    lv_obj_set_local_style_prop_meta         0x0801114b   Thumb Code    38  lv_obj_style.o(.text)
    lv_obj_get_local_style_prop              0x08011171   Thumb Code    62  lv_obj_style.o(.text)
    lv_obj_remove_local_style_prop           0x080111af   Thumb Code    90  lv_obj_style.o(.text)
    _lv_obj_style_create_transition          0x080114dd   Thumb Code   290  lv_obj_style.o(.text)
    _lv_obj_style_apply_color_filter         0x080115ff   Thumb Code    64  lv_obj_style.o(.text)
    _lv_obj_style_state_compare              0x0801163f   Thumb Code   494  lv_obj_style.o(.text)
    lv_obj_fade_in                           0x0801183d   Thumb Code    52  lv_obj_style.o(.text)
    lv_obj_fade_out                          0x08011871   Thumb Code    80  lv_obj_style.o(.text)
    lv_obj_calculate_style_text_align        0x080118c1   Thumb Code    32  lv_obj_style.o(.text)
    lv_obj_get_style_opa_recursive           0x080118e1   Thumb Code    84  lv_obj_style.o(.text)
    lv_obj_set_style_width                   0x08011951   Thumb Code    10  lv_obj_style_gen.o(.text)
    lv_obj_set_style_min_width               0x0801195b   Thumb Code    10  lv_obj_style_gen.o(.text)
    lv_obj_set_style_max_width               0x08011965   Thumb Code    10  lv_obj_style_gen.o(.text)
    lv_obj_set_style_height                  0x0801196f   Thumb Code    10  lv_obj_style_gen.o(.text)
    lv_obj_set_style_min_height              0x08011979   Thumb Code    10  lv_obj_style_gen.o(.text)
    lv_obj_set_style_max_height              0x08011983   Thumb Code    10  lv_obj_style_gen.o(.text)
    lv_obj_set_style_x                       0x0801198d   Thumb Code    10  lv_obj_style_gen.o(.text)
    lv_obj_set_style_y                       0x08011997   Thumb Code    10  lv_obj_style_gen.o(.text)
    lv_obj_set_style_align                   0x080119a1   Thumb Code    10  lv_obj_style_gen.o(.text)
    lv_obj_set_style_transform_width         0x080119ab   Thumb Code    10  lv_obj_style_gen.o(.text)
    lv_obj_set_style_transform_height        0x080119b5   Thumb Code    10  lv_obj_style_gen.o(.text)
    lv_obj_set_style_translate_x             0x080119bf   Thumb Code    10  lv_obj_style_gen.o(.text)
    lv_obj_set_style_translate_y             0x080119c9   Thumb Code    10  lv_obj_style_gen.o(.text)
    lv_obj_set_style_transform_zoom          0x080119d3   Thumb Code    10  lv_obj_style_gen.o(.text)
    lv_obj_set_style_transform_angle         0x080119dd   Thumb Code    10  lv_obj_style_gen.o(.text)
    lv_obj_set_style_transform_pivot_x       0x080119e7   Thumb Code    10  lv_obj_style_gen.o(.text)
    lv_obj_set_style_transform_pivot_y       0x080119f1   Thumb Code    10  lv_obj_style_gen.o(.text)
    lv_obj_set_style_pad_top                 0x080119fb   Thumb Code    10  lv_obj_style_gen.o(.text)
    lv_obj_set_style_pad_bottom              0x08011a05   Thumb Code    10  lv_obj_style_gen.o(.text)
    lv_obj_set_style_pad_left                0x08011a0f   Thumb Code    10  lv_obj_style_gen.o(.text)
    lv_obj_set_style_pad_right               0x08011a19   Thumb Code    10  lv_obj_style_gen.o(.text)
    lv_obj_set_style_pad_row                 0x08011a23   Thumb Code    10  lv_obj_style_gen.o(.text)
    lv_obj_set_style_pad_column              0x08011a2d   Thumb Code    10  lv_obj_style_gen.o(.text)
    lv_obj_set_style_bg_color                0x08011a37   Thumb Code    24  lv_obj_style_gen.o(.text)
    lv_obj_set_style_bg_opa                  0x08011a4f   Thumb Code    10  lv_obj_style_gen.o(.text)
    lv_obj_set_style_bg_grad_color           0x08011a59   Thumb Code    24  lv_obj_style_gen.o(.text)
    lv_obj_set_style_bg_grad_dir             0x08011a71   Thumb Code    10  lv_obj_style_gen.o(.text)
    lv_obj_set_style_bg_main_stop            0x08011a7b   Thumb Code    10  lv_obj_style_gen.o(.text)
    lv_obj_set_style_bg_grad_stop            0x08011a85   Thumb Code    10  lv_obj_style_gen.o(.text)
    lv_obj_set_style_bg_grad                 0x08011a8f   Thumb Code    10  lv_obj_style_gen.o(.text)
    lv_obj_set_style_bg_dither_mode          0x08011a99   Thumb Code    10  lv_obj_style_gen.o(.text)
    lv_obj_set_style_bg_img_src              0x08011aa3   Thumb Code    10  lv_obj_style_gen.o(.text)
    lv_obj_set_style_bg_img_opa              0x08011aad   Thumb Code    10  lv_obj_style_gen.o(.text)
    lv_obj_set_style_bg_img_recolor          0x08011ab7   Thumb Code    24  lv_obj_style_gen.o(.text)
    lv_obj_set_style_bg_img_recolor_opa      0x08011acf   Thumb Code    10  lv_obj_style_gen.o(.text)
    lv_obj_set_style_bg_img_tiled            0x08011ad9   Thumb Code    10  lv_obj_style_gen.o(.text)
    lv_obj_set_style_border_color            0x08011ae3   Thumb Code    24  lv_obj_style_gen.o(.text)
    lv_obj_set_style_border_opa              0x08011afb   Thumb Code    10  lv_obj_style_gen.o(.text)
    lv_obj_set_style_border_width            0x08011b05   Thumb Code    10  lv_obj_style_gen.o(.text)
    lv_obj_set_style_border_side             0x08011b0f   Thumb Code    10  lv_obj_style_gen.o(.text)
    lv_obj_set_style_border_post             0x08011b19   Thumb Code    10  lv_obj_style_gen.o(.text)
    lv_obj_set_style_outline_width           0x08011b23   Thumb Code    10  lv_obj_style_gen.o(.text)
    lv_obj_set_style_outline_color           0x08011b2d   Thumb Code    24  lv_obj_style_gen.o(.text)
    lv_obj_set_style_outline_opa             0x08011b45   Thumb Code    10  lv_obj_style_gen.o(.text)
    lv_obj_set_style_outline_pad             0x08011b4f   Thumb Code    10  lv_obj_style_gen.o(.text)
    lv_obj_set_style_shadow_width            0x08011b59   Thumb Code    10  lv_obj_style_gen.o(.text)
    lv_obj_set_style_shadow_ofs_x            0x08011b63   Thumb Code    10  lv_obj_style_gen.o(.text)
    lv_obj_set_style_shadow_ofs_y            0x08011b6d   Thumb Code    10  lv_obj_style_gen.o(.text)
    lv_obj_set_style_shadow_spread           0x08011b77   Thumb Code    10  lv_obj_style_gen.o(.text)
    lv_obj_set_style_shadow_color            0x08011b81   Thumb Code    24  lv_obj_style_gen.o(.text)
    lv_obj_set_style_shadow_opa              0x08011b99   Thumb Code    10  lv_obj_style_gen.o(.text)
    lv_obj_set_style_img_opa                 0x08011ba3   Thumb Code    10  lv_obj_style_gen.o(.text)
    lv_obj_set_style_img_recolor             0x08011bad   Thumb Code    24  lv_obj_style_gen.o(.text)
    lv_obj_set_style_img_recolor_opa         0x08011bc5   Thumb Code    10  lv_obj_style_gen.o(.text)
    lv_obj_set_style_line_width              0x08011bcf   Thumb Code    10  lv_obj_style_gen.o(.text)
    lv_obj_set_style_line_dash_width         0x08011bd9   Thumb Code    10  lv_obj_style_gen.o(.text)
    lv_obj_set_style_line_dash_gap           0x08011be3   Thumb Code    10  lv_obj_style_gen.o(.text)
    lv_obj_set_style_line_rounded            0x08011bed   Thumb Code    10  lv_obj_style_gen.o(.text)
    lv_obj_set_style_line_color              0x08011bf7   Thumb Code    24  lv_obj_style_gen.o(.text)
    lv_obj_set_style_line_opa                0x08011c0f   Thumb Code    10  lv_obj_style_gen.o(.text)
    lv_obj_set_style_arc_width               0x08011c19   Thumb Code    10  lv_obj_style_gen.o(.text)
    lv_obj_set_style_arc_rounded             0x08011c23   Thumb Code    10  lv_obj_style_gen.o(.text)
    lv_obj_set_style_arc_color               0x08011c2d   Thumb Code    24  lv_obj_style_gen.o(.text)
    lv_obj_set_style_arc_opa                 0x08011c45   Thumb Code    10  lv_obj_style_gen.o(.text)
    lv_obj_set_style_arc_img_src             0x08011c4f   Thumb Code    10  lv_obj_style_gen.o(.text)
    lv_obj_set_style_text_color              0x08011c59   Thumb Code    24  lv_obj_style_gen.o(.text)
    lv_obj_set_style_text_opa                0x08011c71   Thumb Code    10  lv_obj_style_gen.o(.text)
    lv_obj_set_style_text_font               0x08011c7b   Thumb Code    10  lv_obj_style_gen.o(.text)
    lv_obj_set_style_text_letter_space       0x08011c85   Thumb Code    10  lv_obj_style_gen.o(.text)
    lv_obj_set_style_text_line_space         0x08011c8f   Thumb Code    10  lv_obj_style_gen.o(.text)
    lv_obj_set_style_text_decor              0x08011c99   Thumb Code    10  lv_obj_style_gen.o(.text)
    lv_obj_set_style_text_align              0x08011ca3   Thumb Code    10  lv_obj_style_gen.o(.text)
    lv_obj_set_style_radius                  0x08011cad   Thumb Code    10  lv_obj_style_gen.o(.text)
    lv_obj_set_style_clip_corner             0x08011cb7   Thumb Code    10  lv_obj_style_gen.o(.text)
    lv_obj_set_style_opa                     0x08011cc1   Thumb Code    10  lv_obj_style_gen.o(.text)
    lv_obj_set_style_opa_layered             0x08011ccb   Thumb Code    10  lv_obj_style_gen.o(.text)
    lv_obj_set_style_color_filter_dsc        0x08011cd5   Thumb Code    10  lv_obj_style_gen.o(.text)
    lv_obj_set_style_color_filter_opa        0x08011cdf   Thumb Code    10  lv_obj_style_gen.o(.text)
    lv_obj_set_style_anim                    0x08011ce9   Thumb Code    10  lv_obj_style_gen.o(.text)
    lv_obj_set_style_anim_time               0x08011cf3   Thumb Code    10  lv_obj_style_gen.o(.text)
    lv_obj_set_style_anim_speed              0x08011cfd   Thumb Code    10  lv_obj_style_gen.o(.text)
    lv_obj_set_style_transition              0x08011d07   Thumb Code    10  lv_obj_style_gen.o(.text)
    lv_obj_set_style_blend_mode              0x08011d11   Thumb Code    10  lv_obj_style_gen.o(.text)
    lv_obj_set_style_layout                  0x08011d1b   Thumb Code    10  lv_obj_style_gen.o(.text)
    lv_obj_set_style_base_dir                0x08011d25   Thumb Code    10  lv_obj_style_gen.o(.text)
    lv_obj_get_child                         0x08011d31   Thumb Code    36  lv_obj_tree.o(.text)
    lv_obj_get_child_cnt                     0x08011d55   Thumb Code    10  lv_obj_tree.o(.text)
    lv_obj_get_parent                        0x08011d5f   Thumb Code     8  lv_obj_tree.o(.text)
    lv_obj_get_index                         0x08011d67   Thumb Code    50  lv_obj_tree.o(.text)
    lv_obj_get_screen                        0x08011d99   Thumb Code    16  lv_obj_tree.o(.text)
    lv_obj_get_disp                          0x08011da9   Thumb Code    56  lv_obj_tree.o(.text)
    lv_obj_del                               0x08011f07   Thumb Code    88  lv_obj_tree.o(.text)
    lv_obj_clean                             0x08011f5f   Thumb Code    54  lv_obj_tree.o(.text)
    lv_obj_del_anim_ready_cb                 0x08011f95   Thumb Code     4  lv_obj_tree.o(.text)
    lv_obj_del_delayed                       0x08011f99   Thumb Code    44  lv_obj_tree.o(.text)
    lv_obj_del_async                         0x08011fc7   Thumb Code     8  lv_obj_tree.o(.text)
    lv_obj_set_parent                        0x08011fcf   Thumb Code   216  lv_obj_tree.o(.text)
    lv_obj_move_to_index                     0x080120a7   Thumb Code   132  lv_obj_tree.o(.text)
    lv_obj_swap                              0x0801212b   Thumb Code   152  lv_obj_tree.o(.text)
    lv_obj_tree_walk                         0x0801222f   Thumb Code     2  lv_obj_tree.o(.text)
    _lv_refr_init                            0x08012261   Thumb Code    24  lv_refr.o(.text)
    lv_obj_redraw                            0x0801258b   Thumb Code   236  lv_refr.o(.text)
    _lv_disp_refr_timer                      0x08012ee9   Thumb Code   680  lv_refr.o(.text)
    lv_refr_now                              0x08013191   Thumb Code    46  lv_refr.o(.text)
    _lv_inv_area                             0x080131bf   Thumb Code   202  lv_refr.o(.text)
    _lv_refr_get_disp_refreshing             0x08013289   Thumb Code     8  lv_refr.o(.text)
    _lv_refr_set_disp_refreshing             0x08013291   Thumb Code     8  lv_refr.o(.text)
    lv_refr_reset_fps_counter                0x08013299   Thumb Code    10  lv_refr.o(.text)
    lv_refr_get_fps_avg                      0x080132a3   Thumb Code    16  lv_refr.o(.text)
    lv_theme_get_from_obj                    0x080135a9   Thumb Code    22  lv_theme.o(.text)
    lv_theme_apply                           0x080135bf   Thumb Code    36  lv_theme.o(.text)
    lv_theme_set_parent                      0x080135e3   Thumb Code     4  lv_theme.o(.text)
    lv_theme_set_apply_cb                    0x080135e7   Thumb Code     4  lv_theme.o(.text)
    lv_theme_get_font_small                  0x080135eb   Thumb Code    16  lv_theme.o(.text)
    lv_theme_get_font_normal                 0x080135fb   Thumb Code    16  lv_theme.o(.text)
    lv_theme_get_font_large                  0x0801360b   Thumb Code    16  lv_theme.o(.text)
    lv_theme_get_color_primary               0x0801361b   Thumb Code    26  lv_theme.o(.text)
    lv_theme_get_color_secondary             0x08013635   Thumb Code    30  lv_theme.o(.text)
    lv_draw_init                             0x0801367d   Thumb Code     2  lv_draw.o(.text)
    lv_draw_wait_for_finish                  0x0801367f   Thumb Code    10  lv_draw.o(.text)
    lv_draw_arc_dsc_init                     0x08013689   Thumb Code    62  lv_draw_arc.o(.text)
    lv_draw_arc                              0x080136c7   Thumb Code    32  lv_draw_arc.o(.text)
    lv_draw_arc_get_area                     0x080136e7   Thumb Code   944  lv_draw_arc.o(.text)
    lv_draw_img_dsc_init                     0x08013ac9   Thumb Code    48  lv_draw_img.o(.text)
    lv_draw_img_decoded                      0x08013b47   Thumb Code    16  lv_draw_img.o(.text)
    lv_img_cf_has_alpha                      0x08013b57   Thumb Code    32  lv_draw_img.o(.text)
    lv_img_cf_is_chroma_keyed                0x08013b77   Thumb Code    16  lv_draw_img.o(.text)
    lv_draw_img                              0x08013d81   Thumb Code    76  lv_draw_img.o(.text)
    lv_img_cf_get_px_size                    0x08013dcd   Thumb Code    52  lv_draw_img.o(.text)
    lv_img_src_get_type                      0x08013e01   Thumb Code    34  lv_draw_img.o(.text)
    lv_draw_label_dsc_init                   0x08013e6d   Thumb Code    70  lv_draw_label.o(.text)
    lv_draw_letter                           0x08013eb3   Thumb Code    10  lv_draw_label.o(.text)
    lv_draw_label                            0x08013efd   Thumb Code  1336  lv_draw_label.o(.text)
    lv_draw_layer_create                     0x08014455   Thumb Code    98  lv_draw_layer.o(.text)
    lv_draw_layer_adjust                     0x080144b7   Thumb Code    10  lv_draw_layer.o(.text)
    lv_draw_layer_blend                      0x080144c1   Thumb Code    10  lv_draw_layer.o(.text)
    lv_draw_layer_destroy                    0x080144cb   Thumb Code    60  lv_draw_layer.o(.text)
    lv_draw_line_dsc_init                    0x08014507   Thumb Code    62  lv_draw_line.o(.text)
    lv_draw_line                             0x08014545   Thumb Code    26  lv_draw_line.o(.text)
    lv_draw_mask_add                         0x08014561   Thumb Code    46  lv_draw_mask.o(.text)
    lv_draw_mask_apply                       0x0801458f   Thumb Code    64  lv_draw_mask.o(.text)
    lv_draw_mask_apply_ids                   0x080145cf   Thumb Code    86  lv_draw_mask.o(.text)
    lv_draw_mask_remove_id                   0x08014625   Thumb Code    28  lv_draw_mask.o(.text)
    lv_draw_mask_remove_custom               0x08014641   Thumb Code    42  lv_draw_mask.o(.text)
    lv_draw_mask_free_param                  0x0801466b   Thumb Code    54  lv_draw_mask.o(.text)
    _lv_draw_mask_cleanup                    0x080146a1   Thumb Code    40  lv_draw_mask.o(.text)
    lv_draw_mask_get_cnt                     0x080146c9   Thumb Code    26  lv_draw_mask.o(.text)
    lv_draw_mask_is_any                      0x080146e3   Thumb Code    76  lv_draw_mask.o(.text)
    lv_draw_mask_line_points_init            0x08014b01   Thumb Code   272  lv_draw_mask.o(.text)
    lv_draw_mask_line_angle_init             0x08014c11   Thumb Code    70  lv_draw_mask.o(.text)
    lv_draw_mask_angle_init                  0x08014ed7   Thumb Code   174  lv_draw_mask.o(.text)
    lv_draw_mask_radius_init                 0x080154cb   Thumb Code   282  lv_draw_mask.o(.text)
    lv_draw_mask_fade_init                   0x08015699   Thumb Code    40  lv_draw_mask.o(.text)
    lv_draw_mask_map_init                    0x0801573f   Thumb Code    24  lv_draw_mask.o(.text)
    lv_draw_mask_polygon_init                0x0801595b   Thumb Code   138  lv_draw_mask.o(.text)
    lv_draw_rect_dsc_init                    0x08015a5d   Thumb Code   112  lv_draw_rect.o(.text)
    lv_draw_rect                             0x08015acd   Thumb Code    40  lv_draw_rect.o(.text)
    lv_draw_transform                        0x08015b21   Thumb Code    54  lv_draw_transform.o(.text)
    lv_img_buf_get_px_color                  0x08015b59   Thumb Code   264  lv_img_buf.o(.text)
    lv_img_buf_get_px_alpha                  0x08015c61   Thumb Code   186  lv_img_buf.o(.text)
    lv_img_buf_set_px_alpha                  0x08015d1b   Thumb Code   184  lv_img_buf.o(.text)
    lv_img_buf_set_px_color                  0x08015dd3   Thumb Code   260  lv_img_buf.o(.text)
    lv_img_buf_set_palette                   0x08015ed7   Thumb Code   120  lv_img_buf.o(.text)
    lv_img_buf_get_img_size                  0x08015f4f   Thumb Code   124  lv_img_buf.o(.text)
    lv_img_buf_alloc                         0x08015fcb   Thumb Code    88  lv_img_buf.o(.text)
    lv_img_buf_free                          0x08016023   Thumb Code    26  lv_img_buf.o(.text)
    _lv_img_buf_get_transformed_area         0x0801603d   Thumb Code   380  lv_img_buf.o(.text)
    _lv_img_cache_open                       0x080161d1   Thumb Code    80  lv_img_cache.o(.text)
    lv_img_cache_set_size                    0x08016221   Thumb Code     2  lv_img_cache.o(.text)
    lv_img_cache_invalidate_src              0x08016223   Thumb Code     2  lv_img_cache.o(.text)
    lv_img_decoder_built_in_close            0x08016259   Thumb Code    50  lv_img_decoder.o(.text)
    lv_img_decoder_set_close_cb              0x0801628b   Thumb Code     4  lv_img_decoder.o(.text)
    lv_img_decoder_built_in_read_line        0x08016541   Thumb Code   186  lv_img_decoder.o(.text)
    lv_img_decoder_set_read_line_cb          0x080165fb   Thumb Code     4  lv_img_decoder.o(.text)
    lv_img_decoder_built_in_open             0x080165ff   Thumb Code   486  lv_img_decoder.o(.text)
    lv_img_decoder_set_open_cb               0x080167e5   Thumb Code     4  lv_img_decoder.o(.text)
    lv_img_decoder_built_in_info             0x080167e9   Thumb Code   166  lv_img_decoder.o(.text)
    lv_img_decoder_set_info_cb               0x0801688f   Thumb Code     4  lv_img_decoder.o(.text)
    lv_img_decoder_create                    0x08016893   Thumb Code    24  lv_img_decoder.o(.text)
    _lv_img_decoder_init                     0x080168ab   Thumb Code    44  lv_img_decoder.o(.text)
    lv_img_decoder_get_info                  0x080168d7   Thumb Code    82  lv_img_decoder.o(.text)
    lv_img_decoder_open                      0x08016929   Thumb Code   180  lv_img_decoder.o(.text)
    lv_img_decoder_read_line                 0x080169dd   Thumb Code    36  lv_img_decoder.o(.text)
    lv_img_decoder_close                     0x08016a01   Thumb Code    36  lv_img_decoder.o(.text)
    lv_img_decoder_delete                    0x08016a25   Thumb Code    22  lv_img_decoder.o(.text)
    lv_draw_sw_buffer_copy                   0x08016a41   Thumb Code   102  lv_draw_sw.o(.text)
    lv_draw_sw_wait_for_finish               0x08016aa7   Thumb Code     2  lv_draw_sw.o(.text)
    lv_draw_sw_init_ctx                      0x08016aa9   Thumb Code    82  lv_draw_sw.o(.text)
    lv_draw_sw_deinit_ctx                    0x08016afb   Thumb Code     8  lv_draw_sw.o(.text)
    lv_draw_sw_arc                           0x08017255   Thumb Code   852  lv_draw_sw_arc.o(.text)
    lv_draw_sw_blend                         0x080175d7   Thumb Code    44  lv_draw_sw_blend.o(.text)
    lv_draw_sw_blend_basic                   0x08017eab   Thumb Code   480  lv_draw_sw_blend.o(.text)
    lv_gradient_free_cache                   0x08018559   Thumb Code    22  lv_draw_sw_gradient.o(.text)
    lv_gradient_set_cache_size               0x0801856f   Thumb Code    38  lv_draw_sw_gradient.o(.text)
    lv_gradient_calculate                    0x08018595   Thumb Code   264  lv_draw_sw_gradient.o(.text)
    lv_gradient_get                          0x0801869d   Thumb Code   150  lv_draw_sw_gradient.o(.text)
    lv_gradient_cleanup                      0x08018733   Thumb Code    12  lv_draw_sw_gradient.o(.text)
    lv_draw_sw_img_decoded                   0x080188fb   Thumb Code   800  lv_draw_sw_img.o(.text)
    lv_draw_sw_layer_create                  0x08018c45   Thumb Code   246  lv_draw_sw_layer.o(.text)
    lv_draw_sw_layer_adjust                  0x08018d3b   Thumb Code    76  lv_draw_sw_layer.o(.text)
    lv_draw_sw_layer_blend                   0x08018d87   Thumb Code   128  lv_draw_sw_layer.o(.text)
    lv_draw_sw_layer_destroy                 0x08018e07   Thumb Code     6  lv_draw_sw_layer.o(.text)
    lv_draw_sw_letter                        0x080190d3   Thumb Code   278  lv_draw_sw_letter.o(.text)
    lv_draw_sw_line                          0x0801981f   Thumb Code   418  lv_draw_sw_line.o(.text)
    lv_draw_sw_polygon                       0x080199c1   Thumb Code   632  lv_draw_sw_polygon.o(.text)
    draw_border_generic                      0x08019d47   Thumb Code  1204  lv_draw_sw_rect.o(.text)
    lv_draw_sw_rect                          0x0801b6a5   Thumb Code    56  lv_draw_sw_rect.o(.text)
    lv_draw_sw_bg                            0x0801b6dd   Thumb Code    26  lv_draw_sw_rect.o(.text)
    lv_draw_sw_transform                     0x0801bb79   Thumb Code   648  lv_draw_sw_transform.o(.text)
    lv_extra_init                            0x0801be8d   Thumb Code    14  lv_extra.o(.text)
    lv_flex_init                             0x0801c805   Thumb Code    56  lv_flex.o(.text)
    lv_obj_set_style_flex_flow               0x0801c83d   Thumb Code    12  lv_flex.o(.text)
    lv_obj_set_flex_flow                     0x0801c849   Thumb Code    26  lv_flex.o(.text)
    lv_obj_set_style_flex_track_place        0x0801c863   Thumb Code    12  lv_flex.o(.text)
    lv_obj_set_style_flex_cross_place        0x0801c86f   Thumb Code    12  lv_flex.o(.text)
    lv_obj_set_style_flex_main_place         0x0801c87b   Thumb Code    12  lv_flex.o(.text)
    lv_obj_set_flex_align                    0x0801c887   Thumb Code    50  lv_flex.o(.text)
    lv_obj_set_style_flex_grow               0x0801c8b9   Thumb Code    12  lv_flex.o(.text)
    lv_obj_set_flex_grow                     0x0801c8c5   Thumb Code    24  lv_flex.o(.text)
    lv_style_set_flex_flow                   0x0801c8dd   Thumb Code    10  lv_flex.o(.text)
    lv_style_set_flex_main_place             0x0801c8e7   Thumb Code    10  lv_flex.o(.text)
    lv_style_set_flex_cross_place            0x0801c8f1   Thumb Code    10  lv_flex.o(.text)
    lv_style_set_flex_track_place            0x0801c8fb   Thumb Code    10  lv_flex.o(.text)
    lv_style_set_flex_grow                   0x0801c905   Thumb Code    10  lv_flex.o(.text)
    lv_grid_init                             0x0801d1c5   Thumb Code    96  lv_grid.o(.text)
    lv_obj_set_style_grid_row_dsc_array      0x0801d225   Thumb Code    12  lv_grid.o(.text)
    lv_obj_set_style_grid_column_dsc_array   0x0801d231   Thumb Code    12  lv_grid.o(.text)
    lv_obj_set_grid_dsc_array                0x0801d23d   Thumb Code    38  lv_grid.o(.text)
    lv_obj_set_style_grid_row_align          0x0801d263   Thumb Code    12  lv_grid.o(.text)
    lv_obj_set_style_grid_column_align       0x0801d26f   Thumb Code    12  lv_grid.o(.text)
    lv_obj_set_grid_align                    0x0801d27b   Thumb Code    24  lv_grid.o(.text)
    lv_obj_set_style_grid_cell_y_align       0x0801d293   Thumb Code    12  lv_grid.o(.text)
    lv_obj_set_style_grid_cell_row_span      0x0801d29f   Thumb Code    12  lv_grid.o(.text)
    lv_obj_set_style_grid_cell_column_span   0x0801d2ab   Thumb Code    12  lv_grid.o(.text)
    lv_obj_set_style_grid_cell_x_align       0x0801d2b7   Thumb Code    12  lv_grid.o(.text)
    lv_obj_set_style_grid_cell_row_pos       0x0801d2c3   Thumb Code    12  lv_grid.o(.text)
    lv_obj_set_style_grid_cell_column_pos    0x0801d2cf   Thumb Code    12  lv_grid.o(.text)
    lv_obj_set_grid_cell                     0x0801d2db   Thumb Code    90  lv_grid.o(.text)
    lv_style_set_grid_row_dsc_array          0x0801d335   Thumb Code    10  lv_grid.o(.text)
    lv_style_set_grid_column_dsc_array       0x0801d33f   Thumb Code    10  lv_grid.o(.text)
    lv_style_set_grid_row_align              0x0801d349   Thumb Code    10  lv_grid.o(.text)
    lv_style_set_grid_column_align           0x0801d353   Thumb Code    10  lv_grid.o(.text)
    lv_style_set_grid_cell_column_pos        0x0801d35d   Thumb Code    10  lv_grid.o(.text)
    lv_style_set_grid_cell_column_span       0x0801d367   Thumb Code    10  lv_grid.o(.text)
    lv_style_set_grid_cell_row_pos           0x0801d371   Thumb Code    10  lv_grid.o(.text)
    lv_style_set_grid_cell_row_span          0x0801d37b   Thumb Code    10  lv_grid.o(.text)
    lv_style_set_grid_cell_x_align           0x0801d385   Thumb Code    10  lv_grid.o(.text)
    lv_style_set_grid_cell_y_align           0x0801d38f   Thumb Code    10  lv_grid.o(.text)
    lv_theme_default_is_inited               0x0801f7eb   Thumb Code    12  lv_theme_default.o(.text)
    lv_theme_default_init                    0x0801f7f7   Thumb Code   148  lv_theme_default.o(.text)
    lv_theme_default_get                     0x0801f88b   Thumb Code    14  lv_theme_default.o(.text)
    lv_calendar_create                       0x0801f971   Thumb Code    20  lv_calendar.o(.text)
    lv_calendar_set_day_names                0x0801f985   Thumb Code    28  lv_calendar.o(.text)
    lv_calendar_set_today_date               0x0801fa83   Thumb Code    12  lv_calendar.o(.text)
    lv_calendar_set_highlighted_dates        0x0801fa8f   Thumb Code    10  lv_calendar.o(.text)
    lv_calendar_set_showed_date              0x0801faf1   Thumb Code   302  lv_calendar.o(.text)
    lv_calendar_get_btnmatrix                0x0801fc1f   Thumb Code     4  lv_calendar.o(.text)
    lv_calendar_get_today_date               0x0801fc23   Thumb Code     4  lv_calendar.o(.text)
    lv_calendar_get_showed_date              0x0801fc27   Thumb Code     4  lv_calendar.o(.text)
    lv_calendar_get_highlighted_dates        0x0801fc2b   Thumb Code     4  lv_calendar.o(.text)
    lv_calendar_get_highlighted_dates_num    0x0801fc2f   Thumb Code     4  lv_calendar.o(.text)
    lv_calendar_get_pressed_date             0x0801fc33   Thumb Code    82  lv_calendar.o(.text)
    lv_calendar_header_arrow_create          0x0801fe45   Thumb Code    20  lv_calendar_header_arrow.o(.text)
    lv_calendar_header_dropdown_create       0x0801fffd   Thumb Code    20  lv_calendar_header_dropdown.o(.text)
    lv_chart_create                          0x08020151   Thumb Code    20  lv_chart.o(.text)
    lv_chart_refresh                         0x08020165   Thumb Code     4  lv_chart.o(.text)
    lv_chart_set_type                        0x08020169   Thumb Code   132  lv_chart.o(.text)
    lv_chart_set_point_count                 0x080202a1   Thumb Code   116  lv_chart.o(.text)
    lv_chart_set_range                       0x08020315   Thumb Code    66  lv_chart.o(.text)
    lv_chart_set_update_mode                 0x08020357   Thumb Code    26  lv_chart.o(.text)
    lv_chart_set_div_line_count              0x08020371   Thumb Code    30  lv_chart.o(.text)
    lv_chart_set_zoom_x                      0x0802038f   Thumb Code    42  lv_chart.o(.text)
    lv_chart_set_zoom_y                      0x080203b9   Thumb Code    42  lv_chart.o(.text)
    lv_chart_get_zoom_x                      0x080203e3   Thumb Code     6  lv_chart.o(.text)
    lv_chart_get_zoom_y                      0x080203e9   Thumb Code     6  lv_chart.o(.text)
    get_tick_gsc                             0x080203ef   Thumb Code    34  lv_chart.o(.text)
    lv_chart_set_axis_tick                   0x08020411   Thumb Code    62  lv_chart.o(.text)
    lv_chart_get_type                        0x0802044f   Thumb Code    10  lv_chart.o(.text)
    lv_chart_get_point_count                 0x08020459   Thumb Code     6  lv_chart.o(.text)
    lv_chart_get_x_start_point               0x0802045f   Thumb Code    20  lv_chart.o(.text)
    lv_chart_get_point_pos_by_id             0x08020473   Thumb Code   442  lv_chart.o(.text)
    lv_chart_add_series                      0x0802062d   Thumb Code   150  lv_chart.o(.text)
    lv_chart_remove_series                   0x080206c3   Thumb Code    44  lv_chart.o(.text)
    lv_chart_hide_series                     0x080206ef   Thumb Code    16  lv_chart.o(.text)
    lv_chart_set_series_color                0x080206ff   Thumb Code    18  lv_chart.o(.text)
    lv_chart_set_x_start_point               0x08020711   Thumb Code    16  lv_chart.o(.text)
    lv_chart_get_series_next                 0x08020721   Thumb Code    12  lv_chart.o(.text)
    lv_chart_add_cursor                      0x0802072d   Thumb Code    38  lv_chart.o(.text)
    lv_chart_set_cursor_pos                  0x08020753   Thumb Code    20  lv_chart.o(.text)
    lv_chart_set_cursor_point                0x08020767   Thumb Code    42  lv_chart.o(.text)
    lv_chart_get_cursor_point                0x08020791   Thumb Code     8  lv_chart.o(.text)
    lv_chart_set_all_value                   0x08020799   Thumb Code    38  lv_chart.o(.text)
    lv_chart_set_next_value                  0x08020937   Thumb Code    54  lv_chart.o(.text)
    lv_chart_set_next_value2                 0x0802096d   Thumb Code    64  lv_chart.o(.text)
    lv_chart_set_value_by_id                 0x080209ad   Thumb Code    28  lv_chart.o(.text)
    lv_chart_set_value_by_id2                0x080209c9   Thumb Code    48  lv_chart.o(.text)
    lv_chart_set_ext_y_array                 0x080209f9   Thumb Code    46  lv_chart.o(.text)
    lv_chart_set_ext_x_array                 0x08020a27   Thumb Code    46  lv_chart.o(.text)
    lv_chart_get_y_array                     0x08020a55   Thumb Code     8  lv_chart.o(.text)
    lv_chart_get_x_array                     0x08020a5d   Thumb Code     8  lv_chart.o(.text)
    lv_chart_get_pressed_point               0x08020a65   Thumb Code     6  lv_chart.o(.text)
    lv_colorwheel_create                     0x080221d1   Thumb Code    24  lv_colorwheel.o(.text)
    lv_colorwheel_set_hsv                    0x080222f3   Thumb Code   102  lv_colorwheel.o(.text)
    lv_colorwheel_set_rgb                    0x08022359   Thumb Code    94  lv_colorwheel.o(.text)
    lv_colorwheel_set_mode                   0x080223b7   Thumb Code    32  lv_colorwheel.o(.text)
    lv_colorwheel_set_mode_fixed             0x080223d7   Thumb Code    12  lv_colorwheel.o(.text)
    lv_colorwheel_get_hsv                    0x080223e3   Thumb Code     4  lv_colorwheel.o(.text)
    lv_colorwheel_get_rgb                    0x080223e7   Thumb Code    24  lv_colorwheel.o(.text)
    lv_colorwheel_get_color_mode             0x080223ff   Thumb Code    10  lv_colorwheel.o(.text)
    lv_colorwheel_get_color_mode_fixed       0x08022409   Thumb Code    10  lv_colorwheel.o(.text)
    lv_keyboard_create                       0x08022c49   Thumb Code    20  lv_keyboard.o(.text)
    lv_keyboard_set_textarea                 0x08022c5d   Thumb Code    38  lv_keyboard.o(.text)
    lv_keyboard_set_mode                     0x08022cef   Thumb Code    18  lv_keyboard.o(.text)
    lv_keyboard_set_popovers                 0x08022d01   Thumb Code    20  lv_keyboard.o(.text)
    lv_keyboard_set_map                      0x08022d15   Thumb Code    22  lv_keyboard.o(.text)
    lv_keyboard_get_textarea                 0x08022d2b   Thumb Code     4  lv_keyboard.o(.text)
    lv_keyboard_get_mode                     0x08022d2f   Thumb Code     6  lv_keyboard.o(.text)
    lv_btnmatrix_get_popovers                0x08022d35   Thumb Code    10  lv_keyboard.o(.text)
    lv_keyboard_def_event_cb                 0x08022d3f   Thumb Code   458  lv_keyboard.o(.text)
    lv_led_create                            0x08023059   Thumb Code    20  lv_led.o(.text)
    lv_led_set_color                         0x0802306d   Thumb Code    14  lv_led.o(.text)
    lv_led_set_brightness                    0x0802307b   Thumb Code    32  lv_led.o(.text)
    lv_led_on                                0x0802309b   Thumb Code     4  lv_led.o(.text)
    lv_led_off                               0x0802309f   Thumb Code     4  lv_led.o(.text)
    lv_led_get_brightness                    0x080230a3   Thumb Code     6  lv_led.o(.text)
    lv_led_toggle                            0x080230a9   Thumb Code    12  lv_led.o(.text)
    lv_menu_create                           0x08023311   Thumb Code    20  lv_menu.o(.text)
    lv_menu_page_create                      0x08023325   Thumb Code    56  lv_menu.o(.text)
    lv_menu_cont_create                      0x0802335d   Thumb Code    22  lv_menu.o(.text)
    lv_menu_section_create                   0x08023373   Thumb Code    22  lv_menu.o(.text)
    lv_menu_separator_create                 0x08023389   Thumb Code    22  lv_menu.o(.text)
    lv_menu_clear_history                    0x08023411   Thumb Code    18  lv_menu.o(.text)
    lv_menu_set_page                         0x08023423   Thumb Code   216  lv_menu.o(.text)
    lv_menu_back_btn_is_root                 0x080235a3   Thumb Code    28  lv_menu.o(.text)
    lv_menu_set_sidebar_page                 0x08023651   Thumb Code   302  lv_menu.o(.text)
    lv_menu_set_mode_header                  0x0802377f   Thumb Code    48  lv_menu.o(.text)
    lv_menu_set_mode_root_back_btn           0x080237af   Thumb Code    24  lv_menu.o(.text)
    lv_menu_set_load_page_event              0x08023843   Thumb Code   104  lv_menu.o(.text)
    lv_menu_get_cur_main_page                0x080238ab   Thumb Code     4  lv_menu.o(.text)
    lv_menu_get_cur_sidebar_page             0x080238af   Thumb Code     4  lv_menu.o(.text)
    lv_menu_get_main_header                  0x080238b3   Thumb Code     4  lv_menu.o(.text)
    lv_menu_get_main_header_back_btn         0x080238b7   Thumb Code     4  lv_menu.o(.text)
    lv_menu_get_sidebar_header               0x080238bb   Thumb Code     4  lv_menu.o(.text)
    lv_menu_get_sidebar_header_back_btn      0x080238bf   Thumb Code     4  lv_menu.o(.text)
    lv_meter_create                          0x08023af5   Thumb Code    20  lv_meter.o(.text)
    lv_meter_add_scale                       0x08023b09   Thumb Code    56  lv_meter.o(.text)
    lv_meter_set_scale_ticks                 0x08023b41   Thumb Code    22  lv_meter.o(.text)
    lv_meter_set_scale_major_ticks           0x08023b57   Thumb Code    26  lv_meter.o(.text)
    lv_meter_set_scale_range                 0x08023b71   Thumb Code    20  lv_meter.o(.text)
    lv_meter_add_needle_line                 0x08023b85   Thumb Code    68  lv_meter.o(.text)
    lv_meter_add_needle_img                  0x08023bc9   Thumb Code    66  lv_meter.o(.text)
    lv_meter_add_arc                         0x08023c0b   Thumb Code    64  lv_meter.o(.text)
    lv_meter_add_scale_lines                 0x08023c4b   Thumb Code    68  lv_meter.o(.text)
    lv_meter_set_indicator_value             0x08023ea5   Thumb Code    96  lv_meter.o(.text)
    lv_meter_set_indicator_start_value       0x08023f05   Thumb Code    60  lv_meter.o(.text)
    lv_meter_set_indicator_end_value         0x08023f41   Thumb Code    60  lv_meter.o(.text)
    lv_spinbox_create                        0x0802479d   Thumb Code    20  lv_spinbox.o(.text)
    lv_spinbox_set_value                     0x080248bf   Thumb Code    20  lv_spinbox.o(.text)
    lv_spinbox_set_rollover                  0x080248d3   Thumb Code    12  lv_spinbox.o(.text)
    lv_spinbox_set_digit_format              0x080248df   Thumb Code   110  lv_spinbox.o(.text)
    lv_spinbox_set_step                      0x0802494d   Thumb Code     4  lv_spinbox.o(.text)
    lv_spinbox_set_range                     0x08024951   Thumb Code    26  lv_spinbox.o(.text)
    lv_spinbox_set_cursor_pos                0x0802496b   Thumb Code    72  lv_spinbox.o(.text)
    lv_spinbox_set_digit_step_direction      0x080249b3   Thumb Code    14  lv_spinbox.o(.text)
    lv_spinbox_get_value                     0x080249c1   Thumb Code     4  lv_spinbox.o(.text)
    lv_spinbox_get_step                      0x080249c5   Thumb Code     4  lv_spinbox.o(.text)
    lv_spinbox_step_next                     0x080249c9   Thumb Code    22  lv_spinbox.o(.text)
    lv_spinbox_step_prev                     0x080249df   Thumb Code    44  lv_spinbox.o(.text)
    lv_spinbox_get_rollover                  0x08024a0b   Thumb Code    10  lv_spinbox.o(.text)
    lv_spinbox_increment                     0x08024a15   Thumb Code    50  lv_spinbox.o(.text)
    lv_spinbox_decrement                     0x08024a47   Thumb Code    50  lv_spinbox.o(.text)
    lv_spinner_create                        0x08024c25   Thumb Code    26  lv_spinner.o(.text)
    lv_tabview_create                        0x08024ccd   Thumb Code    26  lv_tabview.o(.text)
    lv_tabview_get_tab_btns                  0x08024ce7   Thumb Code     6  lv_tabview.o(.text)
    lv_tabview_get_content                   0x08024ced   Thumb Code     6  lv_tabview.o(.text)
    lv_tabview_set_act                       0x08024cf3   Thumb Code   164  lv_tabview.o(.text)
    lv_tabview_add_tab                       0x08024d97   Thumb Code   272  lv_tabview.o(.text)
    lv_tabview_rename_tab                    0x08024ea7   Thumb Code    70  lv_tabview.o(.text)
    lv_tabview_get_tab_act                   0x08024eed   Thumb Code     4  lv_tabview.o(.text)
    lv_tileview_create                       0x080251bd   Thumb Code    20  lv_tileview.o(.text)
    lv_tileview_add_tile                     0x080251d1   Thumb Code    32  lv_tileview.o(.text)
    lv_obj_set_tile                          0x080251f1   Thumb Code    54  lv_tileview.o(.text)
    lv_obj_set_tile_id                       0x08025227   Thumb Code   100  lv_tileview.o(.text)
    lv_tileview_get_tile_act                 0x0802528b   Thumb Code     4  lv_tileview.o(.text)
    lv_win_create                            0x080253e9   Thumb Code    24  lv_win.o(.text)
    lv_win_get_header                        0x08025401   Thumb Code     6  lv_win.o(.text)
    lv_win_add_title                         0x08025407   Thumb Code    40  lv_win.o(.text)
    lv_win_add_btn                           0x0802542f   Thumb Code    56  lv_win.o(.text)
    lv_win_get_content                       0x08025467   Thumb Code     6  lv_win.o(.text)
    lv_font_get_glyph_bitmap                 0x080254e9   Thumb Code     8  lv_font.o(.text)
    lv_font_get_glyph_dsc                    0x080254f1   Thumb Code   166  lv_font.o(.text)
    lv_font_get_glyph_width                  0x08025597   Thumb Code    24  lv_font.o(.text)
    lv_font_get_bitmap_fmt_txt               0x080256d9   Thumb Code    46  lv_font_fmt_txt.o(.text)
    lv_font_get_glyph_dsc_fmt_txt            0x0802572f   Thumb Code   166  lv_font_fmt_txt.o(.text)
    _lv_font_clean_up_fmt_txt                0x080257d5   Thumb Code     2  lv_font_fmt_txt.o(.text)
    lv_disp_drv_init                         0x08025897   Thumb Code    80  lv_hal_disp.o(.text)
    lv_disp_draw_buf_init                    0x080258e7   Thumb Code    30  lv_hal_disp.o(.text)
    lv_disp_drv_register                     0x08025905   Thumb Code   324  lv_hal_disp.o(.text)
    lv_disp_get_default                      0x08025a53   Thumb Code     6  lv_hal_disp.o(.text)
    lv_disp_get_ver_res                      0x08025a59   Thumb Code    38  lv_hal_disp.o(.text)
    lv_disp_get_hor_res                      0x08025a7f   Thumb Code    38  lv_hal_disp.o(.text)
    lv_disp_drv_update                       0x08025aa5   Thumb Code   184  lv_hal_disp.o(.text)
    lv_disp_set_default                      0x08025b5d   Thumb Code     6  lv_hal_disp.o(.text)
    lv_disp_remove                           0x08025b63   Thumb Code   126  lv_hal_disp.o(.text)
    lv_disp_get_physical_hor_res             0x08025be1   Thumb Code    54  lv_hal_disp.o(.text)
    lv_disp_get_physical_ver_res             0x08025c17   Thumb Code    54  lv_hal_disp.o(.text)
    lv_disp_get_offset_x                     0x08025c4d   Thumb Code   112  lv_hal_disp.o(.text)
    lv_disp_get_offset_y                     0x08025cbd   Thumb Code    76  lv_hal_disp.o(.text)
    lv_disp_get_antialiasing                 0x08025d09   Thumb Code    20  lv_hal_disp.o(.text)
    lv_disp_get_dpi                          0x08025d1d   Thumb Code    22  lv_hal_disp.o(.text)
    lv_disp_flush_ready                      0x08025d33   Thumb Code    12  lv_hal_disp.o(.text)
    lv_disp_flush_is_last                    0x08025d3f   Thumb Code    12  lv_hal_disp.o(.text)
    lv_disp_get_next                         0x08025d4b   Thumb Code    16  lv_hal_disp.o(.text)
    lv_disp_get_draw_buf                     0x08025d5b   Thumb Code     6  lv_hal_disp.o(.text)
    lv_disp_set_rotation                     0x08025d61   Thumb Code    26  lv_hal_disp.o(.text)
    lv_disp_get_rotation                     0x08025d7b   Thumb Code    20  lv_hal_disp.o(.text)
    lv_disp_drv_use_generic_set_px_cb        0x08025f25   Thumb Code    50  lv_hal_disp.o(.text)
    lv_indev_drv_init                        0x08026031   Thumb Code    40  lv_hal_indev.o(.text)
    lv_indev_drv_register                    0x08026059   Thumb Code    64  lv_hal_indev.o(.text)
    lv_indev_drv_update                      0x08026099   Thumb Code    78  lv_hal_indev.o(.text)
    lv_indev_delete                          0x080260e7   Thumb Code    42  lv_hal_indev.o(.text)
    lv_indev_get_next                        0x08026111   Thumb Code    16  lv_hal_indev.o(.text)
    _lv_indev_read                           0x08026121   Thumb Code    68  lv_hal_indev.o(.text)
    lv_tick_inc                              0x0802616d   Thumb Code    14  lv_hal_tick.o(.text)
    lv_tick_get                              0x0802617b   Thumb Code    16  lv_hal_tick.o(.text)
    lv_tick_elaps                            0x0802618b   Thumb Code    12  lv_hal_tick.o(.text)
    _lv_anim_core_init                       0x0802625f   Thumb Code    34  lv_anim.o(.text)
    lv_anim_path_linear                      0x08026281   Thumb Code    38  lv_anim.o(.text)
    lv_anim_init                             0x080262a7   Thumb Code    50  lv_anim.o(.text)
    lv_anim_del                              0x080262d9   Thumb Code    90  lv_anim.o(.text)
    lv_anim_start                            0x08026333   Thumb Code   116  lv_anim.o(.text)
    lv_anim_get_playtime                     0x080263a7   Thumb Code    66  lv_anim.o(.text)
    lv_anim_del_all                          0x080263e9   Thumb Code    16  lv_anim.o(.text)
    lv_anim_get                              0x080263f9   Thumb Code    44  lv_anim.o(.text)
    lv_anim_get_timer                        0x08026425   Thumb Code     6  lv_anim.o(.text)
    lv_anim_count_running                    0x0802642b   Thumb Code    30  lv_anim.o(.text)
    lv_anim_speed_to_time                    0x08026449   Thumb Code    26  lv_anim.o(.text)
    lv_anim_refr_now                         0x08026463   Thumb Code     4  lv_anim.o(.text)
    lv_anim_path_ease_in                     0x08026467   Thumb Code    50  lv_anim.o(.text)
    lv_anim_path_ease_out                    0x08026499   Thumb Code    54  lv_anim.o(.text)
    lv_anim_path_ease_in_out                 0x080264cf   Thumb Code    52  lv_anim.o(.text)
    lv_anim_path_overshoot                   0x08026503   Thumb Code    54  lv_anim.o(.text)
    lv_anim_path_bounce                      0x08026539   Thumb Code   170  lv_anim.o(.text)
    lv_anim_path_step                        0x080265e3   Thumb Code    16  lv_anim.o(.text)
    lv_area_set                              0x080266a5   Thumb Code    14  lv_area.o(.text)
    lv_area_set_width                        0x080266b3   Thumb Code    10  lv_area.o(.text)
    lv_area_set_height                       0x080266bd   Thumb Code    10  lv_area.o(.text)
    _lv_area_set_pos                         0x080266c7   Thumb Code    46  lv_area.o(.text)
    lv_area_get_size                         0x080266f5   Thumb Code    28  lv_area.o(.text)
    lv_area_increase                         0x08026711   Thumb Code    26  lv_area.o(.text)
    lv_area_move                             0x0802672b   Thumb Code    26  lv_area.o(.text)
    _lv_area_intersect                       0x08026745   Thumb Code    80  lv_area.o(.text)
    _lv_area_is_point_on                     0x080267cd   Thumb Code   296  lv_area.o(.text)
    _lv_area_is_in                           0x080268f5   Thumb Code   168  lv_area.o(.text)
    _lv_area_is_on                           0x0802699d   Thumb Code    56  lv_area.o(.text)
    _lv_area_diff                            0x080269d5   Thumb Code   306  lv_area.o(.text)
    _lv_area_join                            0x08026b07   Thumb Code    68  lv_area.o(.text)
    _lv_area_is_out                          0x08026b4b   Thumb Code   160  lv_area.o(.text)
    _lv_area_is_equal                        0x08026beb   Thumb Code    56  lv_area.o(.text)
    lv_area_align                            0x08026c23   Thumb Code   504  lv_area.o(.text)
    lv_point_transform                       0x08026e1b   Thumb Code   310  lv_area.o(.text)
    lv_async_call                            0x08026f81   Thumb Code    52  lv_async.o(.text)
    lv_async_call_cancel                     0x08026fb5   Thumb Code    78  lv_async.o(.text)
    lv_color_fill                            0x08027067   Thumb Code    74  lv_color.o(.text)
    lv_color_lighten                         0x080270b1   Thumb Code    38  lv_color.o(.text)
    lv_color_darken                          0x080270d7   Thumb Code    26  lv_color.o(.text)
    lv_color_change_lightness                0x080270f1   Thumb Code    56  lv_color.o(.text)
    lv_color_hsv_to_rgb                      0x08027129   Thumb Code   180  lv_color.o(.text)
    lv_color_rgb_to_hsv                      0x080271dd   Thumb Code   212  lv_color.o(.text)
    lv_color_to_hsv                          0x080272b1   Thumb Code    78  lv_color.o(.text)
    lv_palette_main                          0x080272ff   Thumb Code    28  lv_color.o(.text)
    lv_palette_lighten                       0x0802731b   Thumb Code    48  lv_color.o(.text)
    lv_palette_darken                        0x0802734b   Thumb Code    44  lv_color.o(.text)
    _lv_fs_init                              0x08027395   Thumb Code     8  lv_fs.o(.text)
    lv_fs_get_drv                            0x0802739d   Thumb Code    36  lv_fs.o(.text)
    lv_fs_is_ready                           0x080273c1   Thumb Code    24  lv_fs.o(.text)
    lv_fs_open                               0x080273d9   Thumb Code   122  lv_fs.o(.text)
    lv_fs_close                              0x08027453   Thumb Code    62  lv_fs.o(.text)
    lv_fs_read                               0x080275c7   Thumb Code    80  lv_fs.o(.text)
    lv_fs_write                              0x08027617   Thumb Code    58  lv_fs.o(.text)
    lv_fs_seek                               0x08027651   Thumb Code   154  lv_fs.o(.text)
    lv_fs_tell                               0x080276eb   Thumb Code    52  lv_fs.o(.text)
    lv_fs_dir_open                           0x0802771f   Thumb Code    78  lv_fs.o(.text)
    lv_fs_dir_read                           0x0802776d   Thumb Code    44  lv_fs.o(.text)
    lv_fs_dir_close                          0x08027799   Thumb Code    34  lv_fs.o(.text)
    lv_fs_drv_init                           0x080277bb   Thumb Code     6  lv_fs.o(.text)
    lv_fs_drv_register                       0x080277c1   Thumb Code    18  lv_fs.o(.text)
    lv_fs_get_letters                        0x080277d3   Thumb Code    40  lv_fs.o(.text)
    lv_fs_get_ext                            0x080277fb   Thumb Code    38  lv_fs.o(.text)
    lv_fs_up                                 0x08027821   Thumb Code    54  lv_fs.o(.text)
    lv_fs_get_last                           0x08027857   Thumb Code    56  lv_fs.o(.text)
    _lv_gc_clear_roots                       0x080278a5   Thumb Code   180  lv_gc.o(.text)
    _lv_ll_init                              0x08027965   Thumb Code    16  lv_ll.o(.text)
    _lv_ll_ins_head                          0x08027975   Thumb Code    60  lv_ll.o(.text)
    _lv_ll_get_prev                          0x080279b1   Thumb Code     6  lv_ll.o(.text)
    _lv_ll_get_head                          0x080279b7   Thumb Code     8  lv_ll.o(.text)
    _lv_ll_ins_prev                          0x080279bf   Thumb Code    98  lv_ll.o(.text)
    _lv_ll_ins_tail                          0x08027a21   Thumb Code    60  lv_ll.o(.text)
    _lv_ll_get_next                          0x08027a5d   Thumb Code     8  lv_ll.o(.text)
    _lv_ll_get_tail                          0x08027a65   Thumb Code     8  lv_ll.o(.text)
    _lv_ll_remove                            0x08027a6d   Thumb Code   104  lv_ll.o(.text)
    _lv_ll_clear                             0x08027ad5   Thumb Code    44  lv_ll.o(.text)
    _lv_ll_chg_list                          0x08027b01   Thumb Code   104  lv_ll.o(.text)
    _lv_ll_get_len                           0x08027b69   Thumb Code    28  lv_ll.o(.text)
    _lv_ll_move_before                       0x08027b85   Thumb Code    92  lv_ll.o(.text)
    _lv_ll_is_empty                          0x08027be1   Thumb Code    18  lv_ll.o(.text)
    lv_trigo_sin                             0x08027c15   Thumb Code    78  lv_math.o(.text)
    lv_bezier3                               0x08027c63   Thumb Code    78  lv_math.o(.text)
    lv_sqrt                                  0x08027cb1   Thumb Code    34  lv_math.o(.text)
    lv_atan2                                 0x08027cd3   Thumb Code   146  lv_math.o(.text)
    lv_pow                                   0x08027d65   Thumb Code    52  lv_math.o(.text)
    lv_map                                   0x08027d99   Thumb Code    60  lv_math.o(.text)
    lv_rand                                  0x08027dd5   Thumb Code    34  lv_math.o(.text)
    lv_mem_init                              0x08027e01   Thumb Code    18  lv_mem.o(.text)
    lv_mem_deinit                            0x08027e13   Thumb Code    16  lv_mem.o(.text)
    lv_mem_alloc                             0x08027e23   Thumb Code    44  lv_mem.o(.text)
    lv_mem_free                              0x08027e4f   Thumb Code    38  lv_mem.o(.text)
    lv_mem_realloc                           0x08027e75   Thumb Code    42  lv_mem.o(.text)
    lv_mem_test                              0x08027e9f   Thumb Code    40  lv_mem.o(.text)
    lv_memset                                0x08027ee7   Thumb Code    98  lv_mem.o(.text)
    lv_mem_monitor                           0x08027f49   Thumb Code    76  lv_mem.o(.text)
    lv_mem_buf_get                           0x08027f95   Thumb Code   146  lv_mem.o(.text)
    lv_mem_buf_release                       0x08028027   Thumb Code    32  lv_mem.o(.text)
    lv_mem_buf_free_all                      0x08028047   Thumb Code    40  lv_mem.o(.text)
    lv_memcpy                                0x0802806f   Thumb Code   294  lv_mem.o(.text)
    lv_memset_00                             0x08028195   Thumb Code   112  lv_mem.o(.text)
    lv_memset_ff                             0x08028205   Thumb Code    94  lv_mem.o(.text)
    lv_snprintf                              0x080288b3   Thumb Code    26  lv_printf.o(.text)
    lv_vsnprintf                             0x080288cd   Thumb Code    18  lv_printf.o(.text)
    lv_style_prop_get_default                0x08028931   Thumb Code   202  lv_style.o(.text)
    lv_style_init                            0x080289fb   Thumb Code     6  lv_style.o(.text)
    lv_style_reset                           0x08028a01   Thumb Code    40  lv_style.o(.text)
    lv_style_register_prop                   0x08028a29   Thumb Code    92  lv_style.o(.text)
    lv_style_get_num_custom_props            0x08028a85   Thumb Code    10  lv_style.o(.text)
    lv_style_remove_prop                     0x08028a8f   Thumb Code   190  lv_style.o(.text)
    _lv_style_get_prop_group                 0x08028b53   Thumb Code    12  lv_style.o(.text)
    lv_style_set_prop                        0x08028c51   Thumb Code     4  lv_style.o(.text)
    lv_style_set_prop_meta                   0x08028c59   Thumb Code    10  lv_style.o(.text)
    lv_style_get_prop                        0x08028c63   Thumb Code     4  lv_style.o(.text)
    lv_style_transition_dsc_init             0x08028c67   Thumb Code    40  lv_style.o(.text)
    lv_style_is_empty                        0x08028c8f   Thumb Code    12  lv_style.o(.text)
    _lv_style_prop_lookup_flags              0x08028c9b   Thumb Code    52  lv_style.o(.text)
    lv_style_set_width                       0x08028d8d   Thumb Code     8  lv_style_gen.o(.text)
    lv_style_set_min_width                   0x08028d95   Thumb Code     8  lv_style_gen.o(.text)
    lv_style_set_max_width                   0x08028d9d   Thumb Code     8  lv_style_gen.o(.text)
    lv_style_set_height                      0x08028da5   Thumb Code     8  lv_style_gen.o(.text)
    lv_style_set_min_height                  0x08028dad   Thumb Code     8  lv_style_gen.o(.text)
    lv_style_set_max_height                  0x08028db5   Thumb Code     8  lv_style_gen.o(.text)
    lv_style_set_x                           0x08028dbd   Thumb Code     8  lv_style_gen.o(.text)
    lv_style_set_y                           0x08028dc5   Thumb Code     8  lv_style_gen.o(.text)
    lv_style_set_align                       0x08028dcd   Thumb Code     8  lv_style_gen.o(.text)
    lv_style_set_transform_width             0x08028dd5   Thumb Code     8  lv_style_gen.o(.text)
    lv_style_set_transform_height            0x08028ddd   Thumb Code     8  lv_style_gen.o(.text)
    lv_style_set_translate_x                 0x08028de5   Thumb Code     8  lv_style_gen.o(.text)
    lv_style_set_translate_y                 0x08028ded   Thumb Code     8  lv_style_gen.o(.text)
    lv_style_set_transform_zoom              0x08028df5   Thumb Code     8  lv_style_gen.o(.text)
    lv_style_set_transform_angle             0x08028dfd   Thumb Code     8  lv_style_gen.o(.text)
    lv_style_set_transform_pivot_x           0x08028e05   Thumb Code     8  lv_style_gen.o(.text)
    lv_style_set_transform_pivot_y           0x08028e0d   Thumb Code     8  lv_style_gen.o(.text)
    lv_style_set_pad_top                     0x08028e15   Thumb Code     8  lv_style_gen.o(.text)
    lv_style_set_pad_bottom                  0x08028e1d   Thumb Code     8  lv_style_gen.o(.text)
    lv_style_set_pad_left                    0x08028e25   Thumb Code     8  lv_style_gen.o(.text)
    lv_style_set_pad_right                   0x08028e2d   Thumb Code     8  lv_style_gen.o(.text)
    lv_style_set_pad_row                     0x08028e35   Thumb Code     8  lv_style_gen.o(.text)
    lv_style_set_pad_column                  0x08028e3d   Thumb Code     8  lv_style_gen.o(.text)
    lv_style_set_bg_color                    0x08028e45   Thumb Code    22  lv_style_gen.o(.text)
    lv_style_set_bg_opa                      0x08028e5b   Thumb Code     8  lv_style_gen.o(.text)
    lv_style_set_bg_grad_color               0x08028e63   Thumb Code    22  lv_style_gen.o(.text)
    lv_style_set_bg_grad_dir                 0x08028e79   Thumb Code     8  lv_style_gen.o(.text)
    lv_style_set_bg_main_stop                0x08028e81   Thumb Code     8  lv_style_gen.o(.text)
    lv_style_set_bg_grad_stop                0x08028e89   Thumb Code     8  lv_style_gen.o(.text)
    lv_style_set_bg_grad                     0x08028e91   Thumb Code     8  lv_style_gen.o(.text)
    lv_style_set_bg_dither_mode              0x08028e99   Thumb Code     8  lv_style_gen.o(.text)
    lv_style_set_bg_img_src                  0x08028ea1   Thumb Code     8  lv_style_gen.o(.text)
    lv_style_set_bg_img_opa                  0x08028ea9   Thumb Code     8  lv_style_gen.o(.text)
    lv_style_set_bg_img_recolor              0x08028eb1   Thumb Code    22  lv_style_gen.o(.text)
    lv_style_set_bg_img_recolor_opa          0x08028ec7   Thumb Code     8  lv_style_gen.o(.text)
    lv_style_set_bg_img_tiled                0x08028ecf   Thumb Code     8  lv_style_gen.o(.text)
    lv_style_set_border_color                0x08028ed7   Thumb Code    22  lv_style_gen.o(.text)
    lv_style_set_border_opa                  0x08028eed   Thumb Code     8  lv_style_gen.o(.text)
    lv_style_set_border_width                0x08028ef5   Thumb Code     8  lv_style_gen.o(.text)
    lv_style_set_border_side                 0x08028efd   Thumb Code     8  lv_style_gen.o(.text)
    lv_style_set_border_post                 0x08028f05   Thumb Code     8  lv_style_gen.o(.text)
    lv_style_set_outline_width               0x08028f0d   Thumb Code     8  lv_style_gen.o(.text)
    lv_style_set_outline_color               0x08028f15   Thumb Code    22  lv_style_gen.o(.text)
    lv_style_set_outline_opa                 0x08028f2b   Thumb Code     8  lv_style_gen.o(.text)
    lv_style_set_outline_pad                 0x08028f33   Thumb Code     8  lv_style_gen.o(.text)
    lv_style_set_shadow_width                0x08028f3b   Thumb Code     8  lv_style_gen.o(.text)
    lv_style_set_shadow_ofs_x                0x08028f43   Thumb Code     8  lv_style_gen.o(.text)
    lv_style_set_shadow_ofs_y                0x08028f4b   Thumb Code     8  lv_style_gen.o(.text)
    lv_style_set_shadow_spread               0x08028f53   Thumb Code     8  lv_style_gen.o(.text)
    lv_style_set_shadow_color                0x08028f5b   Thumb Code    22  lv_style_gen.o(.text)
    lv_style_set_shadow_opa                  0x08028f71   Thumb Code     8  lv_style_gen.o(.text)
    lv_style_set_img_opa                     0x08028f79   Thumb Code     8  lv_style_gen.o(.text)
    lv_style_set_img_recolor                 0x08028f81   Thumb Code    22  lv_style_gen.o(.text)
    lv_style_set_img_recolor_opa             0x08028f97   Thumb Code     8  lv_style_gen.o(.text)
    lv_style_set_line_width                  0x08028f9f   Thumb Code     8  lv_style_gen.o(.text)
    lv_style_set_line_dash_width             0x08028fa7   Thumb Code     8  lv_style_gen.o(.text)
    lv_style_set_line_dash_gap               0x08028faf   Thumb Code     8  lv_style_gen.o(.text)
    lv_style_set_line_rounded                0x08028fb7   Thumb Code     8  lv_style_gen.o(.text)
    lv_style_set_line_color                  0x08028fbf   Thumb Code    22  lv_style_gen.o(.text)
    lv_style_set_line_opa                    0x08028fd5   Thumb Code     8  lv_style_gen.o(.text)
    lv_style_set_arc_width                   0x08028fdd   Thumb Code     8  lv_style_gen.o(.text)
    lv_style_set_arc_rounded                 0x08028fe5   Thumb Code     8  lv_style_gen.o(.text)
    lv_style_set_arc_color                   0x08028fed   Thumb Code    22  lv_style_gen.o(.text)
    lv_style_set_arc_opa                     0x08029003   Thumb Code     8  lv_style_gen.o(.text)
    lv_style_set_arc_img_src                 0x0802900b   Thumb Code     8  lv_style_gen.o(.text)
    lv_style_set_text_color                  0x08029013   Thumb Code    22  lv_style_gen.o(.text)
    lv_style_set_text_opa                    0x08029029   Thumb Code     8  lv_style_gen.o(.text)
    lv_style_set_text_font                   0x08029031   Thumb Code     8  lv_style_gen.o(.text)
    lv_style_set_text_letter_space           0x08029039   Thumb Code     8  lv_style_gen.o(.text)
    lv_style_set_text_line_space             0x08029041   Thumb Code     8  lv_style_gen.o(.text)
    lv_style_set_text_decor                  0x08029049   Thumb Code     8  lv_style_gen.o(.text)
    lv_style_set_text_align                  0x08029051   Thumb Code     8  lv_style_gen.o(.text)
    lv_style_set_radius                      0x08029059   Thumb Code     8  lv_style_gen.o(.text)
    lv_style_set_clip_corner                 0x08029061   Thumb Code     8  lv_style_gen.o(.text)
    lv_style_set_opa                         0x08029069   Thumb Code     8  lv_style_gen.o(.text)
    lv_style_set_opa_layered                 0x08029071   Thumb Code     8  lv_style_gen.o(.text)
    lv_style_set_color_filter_dsc            0x08029079   Thumb Code     8  lv_style_gen.o(.text)
    lv_style_set_color_filter_opa            0x08029081   Thumb Code     8  lv_style_gen.o(.text)
    lv_style_set_anim                        0x08029089   Thumb Code     8  lv_style_gen.o(.text)
    lv_style_set_anim_time                   0x08029091   Thumb Code     8  lv_style_gen.o(.text)
    lv_style_set_anim_speed                  0x08029099   Thumb Code     8  lv_style_gen.o(.text)
    lv_style_set_transition                  0x080290a1   Thumb Code     8  lv_style_gen.o(.text)
    lv_style_set_blend_mode                  0x080290a9   Thumb Code     8  lv_style_gen.o(.text)
    lv_style_set_layout                      0x080290b1   Thumb Code     8  lv_style_gen.o(.text)
    lv_style_set_base_dir                    0x080290b9   Thumb Code     8  lv_style_gen.o(.text)
    lv_timer_enable                          0x080290c1   Thumb Code     6  lv_timer.o(.text)
    _lv_timer_core_init                      0x080290c7   Thumb Code    18  lv_timer.o(.text)
    lv_timer_del                             0x080290d9   Thumb Code    28  lv_timer.o(.text)
    lv_timer_handler                         0x080290f5   Thumb Code   300  lv_timer.o(.text)
    lv_timer_create                          0x08029221   Thumb Code    56  lv_timer.o(.text)
    lv_timer_create_basic                    0x08029259   Thumb Code    10  lv_timer.o(.text)
    lv_timer_set_cb                          0x08029263   Thumb Code     4  lv_timer.o(.text)
    lv_timer_pause                           0x08029267   Thumb Code     6  lv_timer.o(.text)
    lv_timer_resume                          0x0802926d   Thumb Code     6  lv_timer.o(.text)
    lv_timer_set_period                      0x08029273   Thumb Code     4  lv_timer.o(.text)
    lv_timer_ready                           0x08029277   Thumb Code    18  lv_timer.o(.text)
    lv_timer_set_repeat_count                0x08029289   Thumb Code     4  lv_timer.o(.text)
    lv_timer_reset                           0x0802928d   Thumb Code    12  lv_timer.o(.text)
    lv_timer_get_idle                        0x08029299   Thumb Code     6  lv_timer.o(.text)
    lv_timer_get_next                        0x0802929f   Thumb Code    16  lv_timer.o(.text)
    lv_tlsf_check                            0x08029547   Thumb Code   224  lv_tlsf.o(.text)
    lv_tlsf_walk_pool                        0x08029629   Thumb Code    62  lv_tlsf.o(.text)
    lv_tlsf_block_size                       0x08029667   Thumb Code    18  lv_tlsf.o(.text)
    lv_tlsf_check_pool                       0x08029679   Thumb Code    20  lv_tlsf.o(.text)
    lv_tlsf_size                             0x0802968d   Thumb Code     6  lv_tlsf.o(.text)
    lv_tlsf_align_size                       0x08029693   Thumb Code     4  lv_tlsf.o(.text)
    lv_tlsf_block_size_min                   0x08029697   Thumb Code     4  lv_tlsf.o(.text)
    lv_tlsf_block_size_max                   0x0802969b   Thumb Code     6  lv_tlsf.o(.text)
    lv_tlsf_pool_overhead                    0x080296a1   Thumb Code     4  lv_tlsf.o(.text)
    lv_tlsf_alloc_overhead                   0x080296a5   Thumb Code     4  lv_tlsf.o(.text)
    lv_tlsf_add_pool                         0x080296a9   Thumb Code    78  lv_tlsf.o(.text)
    lv_tlsf_remove_pool                      0x080296f7   Thumb Code    84  lv_tlsf.o(.text)
    lv_tlsf_create                           0x0802974b   Thumb Code    58  lv_tlsf.o(.text)
    lv_tlsf_create_with_pool                 0x08029785   Thumb Code    28  lv_tlsf.o(.text)
    lv_tlsf_destroy                          0x080297a1   Thumb Code     2  lv_tlsf.o(.text)
    lv_tlsf_get_pool                         0x080297a3   Thumb Code     6  lv_tlsf.o(.text)
    lv_tlsf_malloc                           0x080297a9   Thumb Code    36  lv_tlsf.o(.text)
    lv_tlsf_memalign                         0x080297cd   Thumb Code   164  lv_tlsf.o(.text)
    lv_tlsf_free                             0x08029871   Thumb Code    92  lv_tlsf.o(.text)
    lv_tlsf_realloc                          0x080298cd   Thumb Code   234  lv_tlsf.o(.text)
    _lv_txt_is_cmd                           0x08029b0d   Thumb Code    54  lv_txt.o(.text)
    _lv_txt_encoded_letter_next_2            0x08029b43   Thumb Code    42  lv_txt.o(.text)
    lv_txt_get_width                         0x08029b6d   Thumb Code   120  lv_txt.o(.text)
    _lv_txt_get_next_line                    0x08029d1b   Thumb Code   244  lv_txt.o(.text)
    lv_txt_get_size                          0x08029e0f   Thumb Code   190  lv_txt.o(.text)
    _lv_txt_ins                              0x08029ecd   Thumb Code    76  lv_txt.o(.text)
    _lv_txt_cut                              0x08029f19   Thumb Code    74  lv_txt.o(.text)
    _lv_txt_set_text_vfmt                    0x08029f63   Thumb Code    52  lv_txt.o(.text)
    _lv_utils_bsearch                        0x0802a1f1   Thumb Code    72  lv_utils.o(.text)
    lv_arc_create                            0x0802a239   Thumb Code    20  lv_arc.o(.text)
    lv_arc_set_start_angle                   0x0802a541   Thumb Code   112  lv_arc.o(.text)
    lv_arc_set_end_angle                     0x0802a5b1   Thumb Code   116  lv_arc.o(.text)
    lv_arc_set_angles                        0x0802a625   Thumb Code    22  lv_arc.o(.text)
    lv_arc_set_bg_start_angle                0x0802a6ff   Thumb Code   106  lv_arc.o(.text)
    lv_arc_set_bg_end_angle                  0x0802a769   Thumb Code   106  lv_arc.o(.text)
    lv_arc_set_bg_angles                     0x0802a7d3   Thumb Code    22  lv_arc.o(.text)
    lv_arc_set_rotation                      0x0802a7e9   Thumb Code     6  lv_arc.o(.text)
    lv_arc_set_value                         0x0802a7ef   Thumb Code    38  lv_arc.o(.text)
    lv_arc_set_mode                          0x0802a815   Thumb Code   100  lv_arc.o(.text)
    lv_arc_set_range                         0x0802a879   Thumb Code    44  lv_arc.o(.text)
    lv_arc_set_change_rate                   0x0802a8a5   Thumb Code     4  lv_arc.o(.text)
    lv_arc_get_angle_start                   0x0802a8a9   Thumb Code     4  lv_arc.o(.text)
    lv_arc_get_angle_end                     0x0802a8ad   Thumb Code     4  lv_arc.o(.text)
    lv_arc_get_bg_angle_start                0x0802a8b1   Thumb Code     4  lv_arc.o(.text)
    lv_arc_get_bg_angle_end                  0x0802a8b5   Thumb Code     4  lv_arc.o(.text)
    lv_arc_get_value                         0x0802a8b9   Thumb Code     6  lv_arc.o(.text)
    lv_arc_get_min_value                     0x0802a8bf   Thumb Code     6  lv_arc.o(.text)
    lv_arc_get_max_value                     0x0802a8c5   Thumb Code     6  lv_arc.o(.text)
    lv_arc_get_mode                          0x0802a8cb   Thumb Code    10  lv_arc.o(.text)
    lv_arc_align_obj_to_angle                0x0802a8d5   Thumb Code   116  lv_arc.o(.text)
    lv_arc_rotate_obj_to_angle               0x0802a949   Thumb Code   150  lv_arc.o(.text)
    lv_bar_create                            0x0802b1a1   Thumb Code    20  lv_bar.o(.text)
    lv_bar_set_value                         0x0802b25f   Thumb Code    64  lv_bar.o(.text)
    lv_bar_set_start_value                   0x0802b29f   Thumb Code    74  lv_bar.o(.text)
    lv_bar_get_mode                          0x0802b2e9   Thumb Code    10  lv_bar.o(.text)
    lv_bar_set_range                         0x0802b2f3   Thumb Code    84  lv_bar.o(.text)
    lv_bar_set_mode                          0x0802b347   Thumb Code    20  lv_bar.o(.text)
    lv_bar_get_value                         0x0802b35b   Thumb Code    14  lv_bar.o(.text)
    lv_bar_get_start_value                   0x0802b369   Thumb Code    30  lv_bar.o(.text)
    lv_bar_get_min_value                     0x0802b387   Thumb Code     4  lv_bar.o(.text)
    lv_bar_get_max_value                     0x0802b38b   Thumb Code     4  lv_bar.o(.text)
    lv_btn_create                            0x0802b9fd   Thumb Code    20  lv_btn.o(.text)
    lv_btnmatrix_create                      0x0802ba31   Thumb Code    20  lv_btnmatrix.o(.text)
    lv_btnmatrix_set_map                     0x0802ba45   Thumb Code   426  lv_btnmatrix.o(.text)
    lv_btnmatrix_set_ctrl_map                0x0802bbef   Thumb Code    24  lv_btnmatrix.o(.text)
    lv_btnmatrix_set_selected_btn            0x0802bccd   Thumb Code    42  lv_btnmatrix.o(.text)
    lv_btnmatrix_clear_btn_ctrl              0x0802bcf7   Thumb Code    72  lv_btnmatrix.o(.text)
    lv_btnmatrix_clear_btn_ctrl_all          0x0802bd3f   Thumb Code    32  lv_btnmatrix.o(.text)
    lv_btnmatrix_set_btn_ctrl                0x0802bd5f   Thumb Code   122  lv_btnmatrix.o(.text)
    lv_btnmatrix_set_btn_ctrl_all            0x0802bdd9   Thumb Code    32  lv_btnmatrix.o(.text)
    lv_btnmatrix_set_btn_width               0x0802bdf9   Thumb Code    52  lv_btnmatrix.o(.text)
    lv_btnmatrix_has_btn_ctrl                0x0802be2d   Thumb Code    24  lv_btnmatrix.o(.text)
    lv_btnmatrix_set_one_checked             0x0802be45   Thumb Code    10  lv_btnmatrix.o(.text)
    lv_btnmatrix_get_map                     0x0802be4f   Thumb Code     4  lv_btnmatrix.o(.text)
    lv_btnmatrix_get_selected_btn            0x0802be53   Thumb Code     4  lv_btnmatrix.o(.text)
    lv_btnmatrix_get_btn_text                0x0802be57   Thumb Code    80  lv_btnmatrix.o(.text)
    lv_btnmatrix_get_one_checked             0x0802bea7   Thumb Code    10  lv_btnmatrix.o(.text)
    lv_checkbox_create                       0x0802ca45   Thumb Code    20  lv_checkbox.o(.text)
    lv_checkbox_set_text                     0x0802ca59   Thumb Code    68  lv_checkbox.o(.text)
    lv_checkbox_set_text_static              0x0802ca9d   Thumb Code    42  lv_checkbox.o(.text)
    lv_checkbox_get_text                     0x0802cac7   Thumb Code     4  lv_checkbox.o(.text)
    lv_dropdown_create                       0x0802ce21   Thumb Code    20  lv_dropdown.o(.text)
    lv_dropdown_set_text                     0x0802ce35   Thumb Code    14  lv_dropdown.o(.text)
    lv_dropdown_set_options                  0x0802ce43   Thumb Code   128  lv_dropdown.o(.text)
    lv_dropdown_set_options_static           0x0802cec3   Thumb Code   100  lv_dropdown.o(.text)
    lv_dropdown_add_option                   0x0802cf27   Thumb Code   260  lv_dropdown.o(.text)
    lv_dropdown_clear_options                0x0802d02b   Thumb Code    62  lv_dropdown.o(.text)
    lv_dropdown_set_selected                 0x0802d0b3   Thumb Code    44  lv_dropdown.o(.text)
    lv_dropdown_set_dir                      0x0802d0df   Thumb Code    26  lv_dropdown.o(.text)
    lv_dropdown_set_symbol                   0x0802d0f9   Thumb Code     6  lv_dropdown.o(.text)
    lv_dropdown_set_selected_highlight       0x0802d0ff   Thumb Code    24  lv_dropdown.o(.text)
    lv_dropdown_get_list                     0x0802d117   Thumb Code     4  lv_dropdown.o(.text)
    lv_dropdown_get_text                     0x0802d11b   Thumb Code     4  lv_dropdown.o(.text)
    lv_dropdown_get_options                  0x0802d11f   Thumb Code    10  lv_dropdown.o(.text)
    lv_dropdown_get_selected                 0x0802d129   Thumb Code     4  lv_dropdown.o(.text)
    lv_dropdown_get_option_cnt               0x0802d12d   Thumb Code     4  lv_dropdown.o(.text)
    lv_dropdown_get_selected_str             0x0802d131   Thumb Code    92  lv_dropdown.o(.text)
    lv_dropdown_get_option_index             0x0802d18d   Thumb Code    84  lv_dropdown.o(.text)
    lv_dropdown_get_symbol                   0x0802d1e1   Thumb Code     4  lv_dropdown.o(.text)
    lv_dropdown_get_selected_highlight       0x0802d1e5   Thumb Code    10  lv_dropdown.o(.text)
    lv_dropdown_get_dir                      0x0802d1ef   Thumb Code    10  lv_dropdown.o(.text)
    lv_dropdown_open                         0x0802d1f9   Thumb Code   528  lv_dropdown.o(.text)
    lv_dropdown_close                        0x0802d409   Thumb Code    38  lv_dropdown.o(.text)
    lv_dropdown_is_open                      0x0802d42f   Thumb Code    16  lv_dropdown.o(.text)
    lv_img_create                            0x0802dc6d   Thumb Code    20  lv_img.o(.text)
    lv_img_set_src                           0x0802dc81   Thumb Code   336  lv_img.o(.text)
    lv_img_set_offset_x                      0x0802ddd1   Thumb Code     6  lv_img.o(.text)
    lv_img_set_offset_y                      0x0802ddd7   Thumb Code     6  lv_img.o(.text)
    lv_img_set_angle                         0x0802dddd   Thumb Code   254  lv_img.o(.text)
    lv_img_set_pivot                         0x0802dedb   Thumb Code   240  lv_img.o(.text)
    lv_img_set_zoom                          0x0802dfcb   Thumb Code   252  lv_img.o(.text)
    lv_img_set_antialias                     0x0802e0c7   Thumb Code    24  lv_img.o(.text)
    lv_img_set_size_mode                     0x0802e0df   Thumb Code    22  lv_img.o(.text)
    lv_img_get_src                           0x0802e0f5   Thumb Code     4  lv_img.o(.text)
    lv_img_get_offset_x                      0x0802e0f9   Thumb Code     6  lv_img.o(.text)
    lv_img_get_offset_y                      0x0802e0ff   Thumb Code     6  lv_img.o(.text)
    lv_img_get_angle                         0x0802e105   Thumb Code     4  lv_img.o(.text)
    lv_img_get_pivot                         0x0802e109   Thumb Code     8  lv_img.o(.text)
    lv_img_get_zoom                          0x0802e111   Thumb Code     4  lv_img.o(.text)
    lv_img_get_antialias                     0x0802e115   Thumb Code     8  lv_img.o(.text)
    lv_img_get_size_mode                     0x0802e11d   Thumb Code    10  lv_img.o(.text)
    lv_label_create                          0x0802e835   Thumb Code    20  lv_label.o(.text)
    lv_label_get_text                        0x0802e849   Thumb Code     4  lv_label.o(.text)
    lv_label_get_letter_on                   0x0802e84d   Thumb Code   482  lv_label.o(.text)
    lv_label_set_text                        0x0802eed5   Thumb Code   108  lv_label.o(.text)
    lv_label_set_text_fmt                    0x0802ef41   Thumb Code    80  lv_label.o(.text)
    lv_label_set_text_static                 0x0802ef91   Thumb Code    50  lv_label.o(.text)
    lv_label_set_long_mode                   0x0802f01d   Thumb Code   136  lv_label.o(.text)
    lv_label_set_recolor                     0x0802f0a5   Thumb Code    24  lv_label.o(.text)
    lv_label_set_text_sel_start              0x0802f0bd   Thumb Code     6  lv_label.o(.text)
    lv_label_set_text_sel_end                0x0802f0c3   Thumb Code     6  lv_label.o(.text)
    lv_label_get_long_mode                   0x0802f0c9   Thumb Code    10  lv_label.o(.text)
    lv_label_get_recolor                     0x0802f0d3   Thumb Code    10  lv_label.o(.text)
    lv_label_get_letter_pos                  0x0802f0dd   Thumb Code   436  lv_label.o(.text)
    lv_label_is_char_under_pos               0x0802f291   Thumb Code   418  lv_label.o(.text)
    lv_label_get_text_selection_start        0x0802f433   Thumb Code     4  lv_label.o(.text)
    lv_label_get_text_selection_end          0x0802f437   Thumb Code     4  lv_label.o(.text)
    lv_label_ins_text                        0x0802f43b   Thumb Code    98  lv_label.o(.text)
    lv_label_cut_text                        0x0802f49d   Thumb Code    44  lv_label.o(.text)
    lv_line_create                           0x0802f91d   Thumb Code    20  lv_line.o(.text)
    lv_line_set_points                       0x0802f931   Thumb Code    22  lv_line.o(.text)
    lv_line_set_y_invert                     0x0802f947   Thumb Code    22  lv_line.o(.text)
    lv_line_get_y_invert                     0x0802f95d   Thumb Code    10  lv_line.o(.text)
    lv_roller_create                         0x0802fb01   Thumb Code    20  lv_roller.o(.text)
    lv_roller_set_options                    0x0802fb99   Thumb Code   212  lv_roller.o(.text)
    lv_roller_set_selected                   0x0802fd85   Thumb Code    90  lv_roller.o(.text)
    lv_roller_set_visible_row_count          0x0802fddf   Thumb Code    56  lv_roller.o(.text)
    lv_roller_get_selected                   0x0802fe17   Thumb Code    32  lv_roller.o(.text)
    lv_roller_get_selected_str               0x0802fe37   Thumb Code    92  lv_roller.o(.text)
    lv_roller_get_options                    0x0802fe93   Thumb Code    14  lv_roller.o(.text)
    lv_roller_get_option_cnt                 0x0802fea1   Thumb Code    18  lv_roller.o(.text)
    lv_slider_create                         0x080305bd   Thumb Code    20  lv_slider.o(.text)
    lv_slider_is_dragged                     0x080305d1   Thumb Code    10  lv_slider.o(.text)
    lv_switch_create                         0x08030db1   Thumb Code    20  lv_switch.o(.text)
    lv_table_create                          0x080310f1   Thumb Code    20  lv_table.o(.text)
    lv_table_set_row_cnt                     0x08031471   Thumb Code   158  lv_table.o(.text)
    lv_table_set_col_cnt                     0x0803150f   Thumb Code   242  lv_table.o(.text)
    lv_table_set_cell_value                  0x08031601   Thumb Code   154  lv_table.o(.text)
    lv_table_set_cell_value_fmt              0x0803169b   Thumb Code   198  lv_table.o(.text)
    lv_table_set_col_width                   0x08031761   Thumb Code    40  lv_table.o(.text)
    lv_table_add_cell_ctrl                   0x08031789   Thumb Code   114  lv_table.o(.text)
    lv_table_clear_cell_ctrl                 0x080317fb   Thumb Code   112  lv_table.o(.text)
    lv_table_set_cell_user_data              0x0803186b   Thumb Code   122  lv_table.o(.text)
    lv_table_get_cell_value                  0x080318e5   Thumb Code    46  lv_table.o(.text)
    lv_table_get_row_cnt                     0x08031913   Thumb Code     4  lv_table.o(.text)
    lv_table_get_col_cnt                     0x08031917   Thumb Code     4  lv_table.o(.text)
    lv_table_get_col_width                   0x0803191b   Thumb Code    18  lv_table.o(.text)
    lv_table_has_cell_ctrl                   0x0803192d   Thumb Code    54  lv_table.o(.text)
    lv_table_get_selected_cell               0x08031963   Thumb Code    10  lv_table.o(.text)
    lv_table_get_cell_user_data              0x0803196d   Thumb Code    46  lv_table.o(.text)
    lv_textarea_create                       0x08032275   Thumb Code    20  lv_textarea.o(.text)
    lv_textarea_get_cursor_pos               0x08032289   Thumb Code     4  lv_textarea.o(.text)
    lv_textarea_set_cursor_pos               0x08032543   Thumb Code   226  lv_textarea.o(.text)
    lv_textarea_get_password_bullet          0x08032625   Thumb Code    42  lv_textarea.o(.text)
    lv_textarea_clear_selection              0x08032729   Thumb Code    50  lv_textarea.o(.text)
    lv_textarea_get_text                     0x0803275b   Thumb Code    18  lv_textarea.o(.text)
    lv_textarea_get_max_length               0x0803276d   Thumb Code     4  lv_textarea.o(.text)
    lv_textarea_get_accepted_chars           0x08032771   Thumb Code     4  lv_textarea.o(.text)
    lv_textarea_add_text                     0x08032775   Thumb Code   206  lv_textarea.o(.text)
    lv_textarea_add_char                     0x08032879   Thumb Code   250  lv_textarea.o(.text)
    lv_textarea_del_char                     0x08032973   Thumb Code   142  lv_textarea.o(.text)
    lv_textarea_del_char_forward             0x08032a01   Thumb Code    28  lv_textarea.o(.text)
    lv_textarea_set_text                     0x08032a1d   Thumb Code   224  lv_textarea.o(.text)
    lv_textarea_set_placeholder_text         0x08032afd   Thumb Code    74  lv_textarea.o(.text)
    lv_textarea_set_cursor_click_pos         0x08032b47   Thumb Code    12  lv_textarea.o(.text)
    lv_textarea_set_password_mode            0x08032b53   Thumb Code   108  lv_textarea.o(.text)
    lv_textarea_set_password_bullet          0x08032bbf   Thumb Code    54  lv_textarea.o(.text)
    lv_textarea_set_one_line                 0x08032bf5   Thumb Code   120  lv_textarea.o(.text)
    lv_textarea_set_accepted_chars           0x08032c6d   Thumb Code     4  lv_textarea.o(.text)
    lv_textarea_set_max_length               0x08032c71   Thumb Code     4  lv_textarea.o(.text)
    lv_textarea_set_insert_replace           0x08032c75   Thumb Code     6  lv_textarea.o(.text)
    lv_textarea_set_text_selection           0x08032c7b   Thumb Code    20  lv_textarea.o(.text)
    lv_textarea_set_password_show_time       0x08032c8f   Thumb Code     4  lv_textarea.o(.text)
    lv_textarea_get_label                    0x08032c93   Thumb Code     4  lv_textarea.o(.text)
    lv_textarea_set_align                    0x08032c97   Thumb Code    52  lv_textarea.o(.text)
    lv_textarea_get_placeholder_text         0x08032ccb   Thumb Code    12  lv_textarea.o(.text)
    lv_textarea_get_cursor_click_pos         0x08032cd7   Thumb Code    10  lv_textarea.o(.text)
    lv_textarea_get_password_mode            0x08032ce1   Thumb Code    10  lv_textarea.o(.text)
    lv_textarea_get_one_line                 0x08032ceb   Thumb Code    10  lv_textarea.o(.text)
    lv_textarea_text_is_selected             0x08032cf5   Thumb Code    36  lv_textarea.o(.text)
    lv_textarea_get_text_selection           0x08032d19   Thumb Code    10  lv_textarea.o(.text)
    lv_textarea_get_password_show_time       0x08032d23   Thumb Code     4  lv_textarea.o(.text)
    lv_textarea_cursor_right                 0x08032d27   Thumb Code     6  lv_textarea.o(.text)
    lv_textarea_cursor_left                  0x08032d2d   Thumb Code    12  lv_textarea.o(.text)
    lv_textarea_cursor_down                  0x08032d39   Thumb Code    94  lv_textarea.o(.text)
    lv_textarea_cursor_up                    0x08032d97   Thumb Code    82  lv_textarea.o(.text)
    lv_port_disp_init                        0x080333b5   Thumb Code    80  lv_port_disp.o(.text)
    disp_enable_update                       0x08033405   Thumb Code     8  lv_port_disp.o(.text)
    disp_disable_update                      0x0803340d   Thumb Code     8  lv_port_disp.o(.text)
    lv_port_indev_init                       0x0803345d   Thumb Code    32  lv_port_indev.o(.text)
    xEventGroupCreate                        0x08033491   Thumb Code    26  event_groups.o(.text)
    xEventGroupSetBits                       0x080334ab   Thumb Code   140  event_groups.o(.text)
    xEventGroupSync                          0x08033537   Thumb Code   194  event_groups.o(.text)
    xEventGroupWaitBits                      0x080335f9   Thumb Code   258  event_groups.o(.text)
    xEventGroupClearBits                     0x080336fb   Thumb Code    64  event_groups.o(.text)
    xEventGroupGetBitsFromISR                0x0803373b   Thumb Code    26  event_groups.o(.text)
    vEventGroupDelete                        0x08033755   Thumb Code    70  event_groups.o(.text)
    vEventGroupSetBitsCallback               0x0803379b   Thumb Code     2  event_groups.o(.text)
    vEventGroupClearBitsCallback             0x0803379d   Thumb Code     2  event_groups.o(.text)
    uxEventGroupGetNumber                    0x0803379f   Thumb Code     8  event_groups.o(.text)
    vEventGroupSetNumber                     0x080337a7   Thumb Code     4  event_groups.o(.text)
    vListInitialise                          0x080337c5   Thumb Code    22  list.o(.text)
    vListInitialiseItem                      0x080337db   Thumb Code     6  list.o(.text)
    vListInsertEnd                           0x080337e1   Thumb Code    24  list.o(.text)
    vListInsert                              0x080337f9   Thumb Code    48  list.o(.text)
    uxListRemove                             0x08033829   Thumb Code    38  list.o(.text)
    xQueueGenericReset                       0x08033851   Thumb Code   132  queue.o(.text)
    xQueueGenericCreate                      0x080338d5   Thumb Code    82  queue.o(.text)
    xQueueGenericSend                        0x080339fb   Thumb Code   350  queue.o(.text)
    xQueueCreateMutex                        0x08033b59   Thumb Code    36  queue.o(.text)
    xQueueGiveMutexRecursive                 0x08033b7d   Thumb Code    62  queue.o(.text)
    xQueueSemaphoreTake                      0x08033bbb   Thumb Code   378  queue.o(.text)
    xQueueTakeMutexRecursive                 0x08033d35   Thumb Code    64  queue.o(.text)
    xQueueCreateCountingSemaphore            0x08033d75   Thumb Code    58  queue.o(.text)
    xQueueGenericSendFromISR                 0x08033daf   Thumb Code   188  queue.o(.text)
    xQueueGiveFromISR                        0x08033e6b   Thumb Code   156  queue.o(.text)
    xQueueReceive                            0x08033f2d   Thumb Code   306  queue.o(.text)
    xQueuePeek                               0x0803405f   Thumb Code   304  queue.o(.text)
    xQueueReceiveFromISR                     0x0803418f   Thumb Code   152  queue.o(.text)
    xQueuePeekFromISR                        0x08034227   Thumb Code   116  queue.o(.text)
    uxQueueMessagesWaiting                   0x0803429b   Thumb Code    36  queue.o(.text)
    uxQueueSpacesAvailable                   0x080342bf   Thumb Code    40  queue.o(.text)
    uxQueueMessagesWaitingFromISR            0x080342e7   Thumb Code    22  queue.o(.text)
    vQueueUnregisterQueue                    0x080342fd   Thumb Code    36  queue.o(.text)
    vQueueDelete                             0x08034321   Thumb Code    36  queue.o(.text)
    uxQueueGetQueueNumber                    0x08034345   Thumb Code     4  queue.o(.text)
    vQueueSetQueueNumber                     0x08034349   Thumb Code     4  queue.o(.text)
    ucQueueGetQueueType                      0x0803434d   Thumb Code     6  queue.o(.text)
    xQueueIsQueueEmptyFromISR                0x08034353   Thumb Code    30  queue.o(.text)
    xQueueIsQueueFullFromISR                 0x08034371   Thumb Code    34  queue.o(.text)
    vQueueAddToRegistry                      0x08034393   Thumb Code    32  queue.o(.text)
    pcQueueGetName                           0x080343b3   Thumb Code    34  queue.o(.text)
    vQueueWaitForMessageRestricted           0x080343d5   Thumb Code    68  queue.o(.text)
    xTaskCreate                              0x08034501   Thumb Code    86  tasks.o(.text)
    vTaskDelete                              0x08034557   Thumb Code   158  tasks.o(.text)
    xTaskIncrementTick                       0x080345f5   Thumb Code   200  tasks.o(.text)
    xTaskResumeAll                           0x080346bd   Thumb Code   184  tasks.o(.text)
    vTaskSuspendAll                          0x080347db   Thumb Code    10  tasks.o(.text)
    vTaskDelayUntil                          0x080347e5   Thumb Code   148  tasks.o(.text)
    vTaskDelay                               0x08034879   Thumb Code    66  tasks.o(.text)
    eTaskGetState                            0x080348bb   Thumb Code   104  tasks.o(.text)
    uxTaskPriorityGet                        0x08034923   Thumb Code    24  tasks.o(.text)
    uxTaskPriorityGetFromISR                 0x0803493b   Thumb Code    40  tasks.o(.text)
    vTaskPrioritySet                         0x08034963   Thumb Code   184  tasks.o(.text)
    vTaskSwitchContext                       0x08034a1b   Thumb Code    84  tasks.o(.text)
    vTaskSuspend                             0x08034a6f   Thumb Code   170  tasks.o(.text)
    vTaskResume                              0x08034b49   Thumb Code   114  tasks.o(.text)
    xTaskResumeFromISR                       0x08034bbb   Thumb Code   128  tasks.o(.text)
    vTaskStartScheduler                      0x08034c9b   Thumb Code    94  tasks.o(.text)
    vTaskEndScheduler                        0x08034cf9   Thumb Code    26  tasks.o(.text)
    xTaskGetTickCount                        0x08034d13   Thumb Code     8  tasks.o(.text)
    xTaskGetTickCountFromISR                 0x08034d1b   Thumb Code    14  tasks.o(.text)
    uxTaskGetNumberOfTasks                   0x08034d29   Thumb Code     8  tasks.o(.text)
    pcTaskGetName                            0x08034d31   Thumb Code    30  tasks.o(.text)
    vTaskGetInfo                             0x08034d4f   Thumb Code   122  tasks.o(.text)
    uxTaskGetSystemState                     0x08034e1d   Thumb Code   162  tasks.o(.text)
    vTaskPlaceOnEventList                    0x08034ebf   Thumb Code    44  tasks.o(.text)
    vTaskPlaceOnUnorderedEventList           0x08034eeb   Thumb Code    72  tasks.o(.text)
    vTaskPlaceOnEventListRestricted          0x08034f33   Thumb Code    52  tasks.o(.text)
    xTaskRemoveFromEventList                 0x08034f67   Thumb Code   108  tasks.o(.text)
    vTaskRemoveFromUnorderedEventList        0x08034fd3   Thumb Code   106  tasks.o(.text)
    vTaskSetTimeOutState                     0x0803503d   Thumb Code    46  tasks.o(.text)
    vTaskInternalSetTimeOutState             0x0803506b   Thumb Code    34  tasks.o(.text)
    xTaskCheckForTimeOut                     0x0803508d   Thumb Code   110  tasks.o(.text)
    vTaskMissedYield                         0x080350fb   Thumb Code     8  tasks.o(.text)
    uxTaskGetTaskNumber                      0x08035103   Thumb Code     8  tasks.o(.text)
    vTaskSetTaskNumber                       0x0803510b   Thumb Code     8  tasks.o(.text)
    xTaskGetCurrentTaskHandle                0x08035113   Thumb Code     6  tasks.o(.text)
    xTaskGetSchedulerState                   0x08035119   Thumb Code    22  tasks.o(.text)
    xTaskPriorityInherit                     0x0803512f   Thumb Code   140  tasks.o(.text)
    xTaskPriorityDisinherit                  0x080351bb   Thumb Code   144  tasks.o(.text)
    vTaskPriorityDisinheritAfterTimeout      0x0803524b   Thumb Code   162  tasks.o(.text)
    uxTaskResetEventItemValue                0x080352ed   Thumb Code    20  tasks.o(.text)
    pvTaskIncrementMutexHeldCount            0x08035301   Thumb Code    18  tasks.o(.text)
    ulTaskNotifyTake                         0x08035313   Thumb Code    96  tasks.o(.text)
    xTaskNotifyWait                          0x08035373   Thumb Code   128  tasks.o(.text)
    xTaskGenericNotify                       0x080353f3   Thumb Code   226  tasks.o(.text)
    xTaskGenericNotifyFromISR                0x080354d5   Thumb Code   248  tasks.o(.text)
    vTaskNotifyGiveFromISR                   0x080355cd   Thumb Code   170  tasks.o(.text)
    xTaskNotifyStateClear                    0x08035677   Thumb Code    44  tasks.o(.text)
    xTimerGenericCommand                     0x080357bd   Thumb Code    88  timers.o(.text)
    xTimerCreateTimerTask                    0x0803595f   Thumb Code    58  timers.o(.text)
    xTimerCreate                             0x08035999   Thumb Code    98  timers.o(.text)
    xTimerGetTimerDaemonTaskHandle           0x080359fb   Thumb Code    26  timers.o(.text)
    xTimerGetPeriod                          0x08035a15   Thumb Code    22  timers.o(.text)
    vTimerSetReloadMode                      0x08035a2b   Thumb Code    54  timers.o(.text)
    xTimerGetExpiryTime                      0x08035a61   Thumb Code    22  timers.o(.text)
    pcTimerGetName                           0x08035a77   Thumb Code    22  timers.o(.text)
    xTimerIsTimerActive                      0x08035a8d   Thumb Code    48  timers.o(.text)
    pvTimerGetTimerID                        0x08035abd   Thumb Code    36  timers.o(.text)
    vTimerSetTimerID                         0x08035ae1   Thumb Code    38  timers.o(.text)
    uxTimerGetTimerNumber                    0x08035b07   Thumb Code     4  timers.o(.text)
    vTimerSetTimerNumber                     0x08035b0b   Thumb Code     4  timers.o(.text)
    pvPortMalloc                             0x08035cc1   Thumb Code   210  heap_4.o(.text)
    vPortFree                                0x08035d93   Thumb Code    90  heap_4.o(.text)
    xPortGetFreeHeapSize                     0x08035ded   Thumb Code     8  heap_4.o(.text)
    xPortGetMinimumEverFreeHeapSize          0x08035df5   Thumb Code     8  heap_4.o(.text)
    vPortInitialiseBlocks                    0x08035dfd   Thumb Code     2  heap_4.o(.text)
    pxPortInitialiseStack                    0x08035e6d   Thumb Code    40  port.o(.text)
    vPortSetupTimerInterrupt                 0x08035e95   Thumb Code    32  port.o(.text)
    xPortStartScheduler                      0x08035eb5   Thumb Code   224  port.o(.text)
    vPortEndScheduler                        0x08035f95   Thumb Code    28  port.o(.text)
    vPortEnterCritical                       0x08035fb1   Thumb Code    56  port.o(.text)
    vPortExitCritical                        0x08035fe9   Thumb Code    34  port.o(.text)
    SysTick_Handler                          0x0803600b   Thumb Code    40  port.o(.text)
    vPortValidateInterruptPriority           0x08036033   Thumb Code    76  port.o(.text)
    RTC_ConfigInit                           0x0803609d   Thumb Code    70  rtc.o(.text)
    RTC_SetDateTime                          0x080360e3   Thumb Code    56  rtc.o(.text)
    __aeabi_uldivmod                         0x0803611b   Thumb Code    98  uldiv.o(.text)
    ___aeabi_memcpy8$move                    0x0803617d   Thumb Code     0  memmovea.o(.text)
    __aeabi_memcpy                           0x0803617d   Thumb Code    64  memmovea.o(.text)
    __aeabi_memcpy4                          0x0803617d   Thumb Code     0  memmovea.o(.text)
    __aeabi_memmove                          0x0803617d   Thumb Code     0  memmovea.o(.text)
    __aeabi_memmove4                         0x0803617d   Thumb Code     0  memmovea.o(.text)
    __aeabi_memmove8                         0x0803617d   Thumb Code     0  memmovea.o(.text)
    __aeabi_memset                           0x080361bd   Thumb Code    14  memseta.o(.text)
    __aeabi_memset4                          0x080361bd   Thumb Code     0  memseta.o(.text)
    __aeabi_memset8                          0x080361bd   Thumb Code     0  memseta.o(.text)
    __aeabi_memclr                           0x080361cb   Thumb Code     4  memseta.o(.text)
    __aeabi_memclr4                          0x080361cb   Thumb Code     0  memseta.o(.text)
    __aeabi_memclr8                          0x080361cb   Thumb Code     0  memseta.o(.text)
    memset                                   0x080361cf   Thumb Code    18  memseta.o(.text)
    strcat                                   0x080361e1   Thumb Code    24  strcat.o(.text)
    strstr                                   0x080361f9   Thumb Code    36  strstr.o(.text)
    strlen                                   0x0803621d   Thumb Code    14  strlen.o(.text)
    strcmp                                   0x0803622b   Thumb Code    28  strcmp.o(.text)
    memcmp                                   0x08036247   Thumb Code    26  memcmp.o(.text)
    strcpy                                   0x08036261   Thumb Code    18  strcpy.o(.text)
    strncmp                                  0x08036273   Thumb Code    30  strncmp.o(.text)
    __0sscanf                                0x08036291   Thumb Code    48  __0sscanf.o(.text)
    _scanf_string                            0x080362c9   Thumb Code   224  _scanf_str.o(.text)
    atoi                                     0x080363a9   Thumb Code    26  atoi.o(.text)
    __aeabi_dmul                             0x080363c3   Thumb Code   228  dmul.o(.text)
    __aeabi_ui2d                             0x080364a7   Thumb Code    26  dfltui.o(.text)
    __aeabi_d2uiz                            0x080364c1   Thumb Code    50  dfixui.o(.text)
    __aeabi_f2d                              0x080364f3   Thumb Code    38  f2d.o(.text)
    __aeabi_cdcmpeq                          0x08036519   Thumb Code     0  cdcmple.o(.text)
    __aeabi_cdcmple                          0x08036519   Thumb Code    48  cdcmple.o(.text)
    __aeabi_cdrcmple                         0x08036549   Thumb Code    48  cdrcmple.o(.text)
    __aeabi_uidiv                            0x08036579   Thumb Code     0  uidiv.o(.text)
    __aeabi_uidivmod                         0x08036579   Thumb Code    44  uidiv.o(.text)
    __aeabi_llsl                             0x080365a5   Thumb Code    30  llshl.o(.text)
    _ll_shift_l                              0x080365a5   Thumb Code     0  llshl.o(.text)
    __aeabi_llsr                             0x080365c3   Thumb Code    32  llushr.o(.text)
    _ll_ushift_r                             0x080365c3   Thumb Code     0  llushr.o(.text)
    __vfscanf_char                           0x080365f1   Thumb Code    20  scanf_char.o(.text)
    _sgetc                                   0x0803660d   Thumb Code    30  _sgetc.o(.text)
    _sbackspace                              0x0803662b   Thumb Code    34  _sgetc.o(.text)
    strtol                                   0x0803664d   Thumb Code   112  strtol.o(.text)
    __I$use$fp                               0x080366bd   Thumb Code     0  iusefp.o(.text)
    _double_round                            0x080366bd   Thumb Code    30  depilogue.o(.text)
    _double_epilogue                         0x080366db   Thumb Code   156  depilogue.o(.text)
    __aeabi_dadd                             0x08036777   Thumb Code   322  dadd.o(.text)
    __aeabi_dsub                             0x080368b9   Thumb Code     6  dadd.o(.text)
    __aeabi_drsub                            0x080368bf   Thumb Code     6  dadd.o(.text)
    __aeabi_ddiv                             0x080368c5   Thumb Code   222  ddiv.o(.text)
    _dsqrt                                   0x080369a3   Thumb Code   162  dsqrt.o(.text)
    __aeabi_d2ulz                            0x08036a45   Thumb Code    48  dfixul.o(.text)
    __scatterload                            0x08036a75   Thumb Code    28  init.o(.text)
    __scatterload_rt2                        0x08036a75   Thumb Code     0  init.o(.text)
    __aeabi_lasr                             0x08036a99   Thumb Code    36  llsshr.o(.text)
    _ll_sshift_r                             0x08036a99   Thumb Code     0  llsshr.o(.text)
    __rt_ctype_table                         0x08036abd   Thumb Code     4  ctype_o.o(.text)
    isspace                                  0x08036ac5   Thumb Code    18  isspace_o.o(.text)
    __vfscanf                                0x08036ad9   Thumb Code   810  _scanf.o(.text)
    _strtoul                                 0x08036e09   Thumb Code   158  _strtoul.o(.text)
    _chval                                   0x08036ea7   Thumb Code    28  _chval.o(.text)
    __decompress                             0x08036ec3   Thumb Code     0  __dczerorl2.o(.text)
    __decompress1                            0x08036ec3   Thumb Code    86  __dczerorl2.o(.text)
    __0printf                                0x08036f19   Thumb Code    22  printfa.o(i.__0printf)
    __1printf                                0x08036f19   Thumb Code     0  printfa.o(i.__0printf)
    __2printf                                0x08036f19   Thumb Code     0  printfa.o(i.__0printf)
    __c89printf                              0x08036f19   Thumb Code     0  printfa.o(i.__0printf)
    printf                                   0x08036f19   Thumb Code     0  printfa.o(i.__0printf)
    __0sprintf                               0x08036f39   Thumb Code    34  printfa.o(i.__0sprintf)
    __1sprintf                               0x08036f39   Thumb Code     0  printfa.o(i.__0sprintf)
    __2sprintf                               0x08036f39   Thumb Code     0  printfa.o(i.__0sprintf)
    __c89sprintf                             0x08036f39   Thumb Code     0  printfa.o(i.__0sprintf)
    sprintf                                  0x08036f39   Thumb Code     0  printfa.o(i.__0sprintf)
    __aeabi_errno_addr                       0x08036f61   Thumb Code     4  errno.o(i.__aeabi_errno_addr)
    __rt_errno_addr                          0x08036f61   Thumb Code     0  errno.o(i.__aeabi_errno_addr)
    __hardfp_sqrt                            0x08036f69   Thumb Code   122  sqrt.o(i.__hardfp_sqrt)
    __scatterload_copy                       0x08036fe3   Thumb Code    14  handlers.o(i.__scatterload_copy)
    __scatterload_null                       0x08036ff1   Thumb Code     2  handlers.o(i.__scatterload_null)
    __scatterload_zeroinit                   0x08036ff3   Thumb Code    14  handlers.o(i.__scatterload_zeroinit)
    __set_errno                              0x08037001   Thumb Code     6  errno.o(i.__set_errno)
    img_chezaibeijing_map                    0x080378ec   Data       153600  chezaibeijing.o(.constdata)
    image_chezaibeijing                      0x0805d0ec   Data          12  chezaibeijing.o(.constdata)
    asc2_1206                                0x0805d0f8   Data        1140  lcd_font.o(.constdata)
    asc2_1608                                0x0805d56c   Data        1520  lcd_font.o(.constdata)
    asc2_2412                                0x0805db5c   Data        3420  lcd_font.o(.constdata)
    g_font_dot_matrix_32                     0x0805e8b8   Data        3584  lcd_font.o(.constdata)
    TP_REMIND_MSG_TBL                        0x0805f6b8   Data           4  lcd_touch.o(.constdata)
    FSMC_DefaultTimingStruct                 0x0805f6bc   Data          28  stm32f4xx_fsmc.o(.constdata)
    lv_obj_class                             0x0805f6d8   Data          28  lv_obj.o(.constdata)
    _lv_bpp1_opa_table                       0x0805f6fc   Data           2  lv_draw_sw_letter.o(.constdata)
    _lv_bpp2_opa_table                       0x0805f6fe   Data           4  lv_draw_sw_letter.o(.constdata)
    _lv_bpp4_opa_table                       0x0805f702   Data          16  lv_draw_sw_letter.o(.constdata)
    _lv_bpp8_opa_table                       0x0805f712   Data         256  lv_draw_sw_letter.o(.constdata)
    lv_calendar_class                        0x0805f854   Data          28  lv_calendar.o(.constdata)
    lv_calendar_header_arrow_class           0x0805f870   Data          28  lv_calendar_header_arrow.o(.constdata)
    lv_calendar_header_dropdown_class        0x0805f88c   Data          28  lv_calendar_header_dropdown.o(.constdata)
    lv_chart_class                           0x0805f8a8   Data          28  lv_chart.o(.constdata)
    lv_colorwheel_class                      0x0805f8c4   Data          28  lv_colorwheel.o(.constdata)
    lv_keyboard_class                        0x0805f8e0   Data          28  lv_keyboard.o(.constdata)
    lv_led_class                             0x0805fc74   Data          28  lv_led.o(.constdata)
    lv_list_class                            0x0805fc90   Data          28  lv_list.o(.constdata)
    lv_list_btn_class                        0x0805fcac   Data          28  lv_list.o(.constdata)
    lv_list_text_class                       0x0805fcc8   Data          28  lv_list.o(.constdata)
    lv_menu_class                            0x0805fce4   Data          28  lv_menu.o(.constdata)
    lv_menu_page_class                       0x0805fd00   Data          28  lv_menu.o(.constdata)
    lv_menu_cont_class                       0x0805fd1c   Data          28  lv_menu.o(.constdata)
    lv_menu_section_class                    0x0805fd38   Data          28  lv_menu.o(.constdata)
    lv_menu_separator_class                  0x0805fd54   Data          28  lv_menu.o(.constdata)
    lv_menu_sidebar_cont_class               0x0805fd70   Data          28  lv_menu.o(.constdata)
    lv_menu_main_cont_class                  0x0805fd8c   Data          28  lv_menu.o(.constdata)
    lv_menu_main_header_cont_class           0x0805fda8   Data          28  lv_menu.o(.constdata)
    lv_menu_sidebar_header_cont_class        0x0805fdc4   Data          28  lv_menu.o(.constdata)
    lv_meter_class                           0x0805fde0   Data          28  lv_meter.o(.constdata)
    lv_msgbox_class                          0x0805fdfc   Data          28  lv_msgbox.o(.constdata)
    lv_msgbox_content_class                  0x0805fe18   Data          28  lv_msgbox.o(.constdata)
    lv_msgbox_backdrop_class                 0x0805fe34   Data          28  lv_msgbox.o(.constdata)
    lv_spinbox_class                         0x0805fe50   Data          28  lv_spinbox.o(.constdata)
    lv_spinner_class                         0x0805fe6c   Data          28  lv_spinner.o(.constdata)
    lv_tabview_class                         0x0805fe88   Data          28  lv_tabview.o(.constdata)
    lv_tileview_class                        0x0805fea4   Data          28  lv_tileview.o(.constdata)
    lv_tileview_tile_class                   0x0805fec0   Data          28  lv_tileview.o(.constdata)
    lv_win_class                             0x0805fedc   Data          28  lv_win.o(.constdata)
    lv_font_montserrat_14                    0x08063420   Data          28  lv_font_montserrat_14.o(.constdata)
    _lv_style_builtin_prop_flag_lookup_table 0x08063674   Data         113  lv_style.o(.constdata)
    lv_arc_class                             0x080636e8   Data          28  lv_arc.o(.constdata)
    lv_bar_class                             0x08063704   Data          28  lv_bar.o(.constdata)
    lv_btn_class                             0x08063720   Data          28  lv_btn.o(.constdata)
    lv_btnmatrix_class                       0x0806373c   Data          28  lv_btnmatrix.o(.constdata)
    lv_checkbox_class                        0x08063758   Data          28  lv_checkbox.o(.constdata)
    lv_dropdown_class                        0x08063774   Data          28  lv_dropdown.o(.constdata)
    lv_dropdownlist_class                    0x08063790   Data          28  lv_dropdown.o(.constdata)
    lv_img_class                             0x080637ac   Data          28  lv_img.o(.constdata)
    lv_label_class                           0x080637c8   Data          28  lv_label.o(.constdata)
    lv_line_class                            0x080637e4   Data          28  lv_line.o(.constdata)
    lv_roller_class                          0x08063800   Data          28  lv_roller.o(.constdata)
    lv_roller_label_class                    0x0806381c   Data          28  lv_roller.o(.constdata)
    lv_slider_class                          0x08063838   Data          28  lv_slider.o(.constdata)
    lv_switch_class                          0x08063854   Data          28  lv_switch.o(.constdata)
    lv_table_class                           0x08063870   Data          28  lv_table.o(.constdata)
    lv_textarea_class                        0x0806388c   Data          28  lv_textarea.o(.constdata)
    __ctype_table                            0x080638a8   Data         129  ctype_o.o(.constdata)
    Region$$Table$$Base                      0x08063f38   Number         0  anon$$obj.o(Region$$Table)
    Region$$Table$$Limit                     0x08063f58   Number         0  anon$$obj.o(Region$$Table)
    app_task1_init_handle                    0x20000000   Data           4  main.o(.data)
    app_task2_lvgl_task_handle               0x20000004   Data           4  main.o(.data)
    app_task3_lvgl_handle                    0x20000008   Data           4  main.o(.data)
    app_task4_rtc_handle                     0x2000000c   Data           4  main.o(.data)
    app_task5_adc_handle                     0x20000010   Data           4  main.o(.data)
    app_task6_dht11_handle                   0x20000014   Data           4  main.o(.data)
    app_task9_mq2_handle                     0x20000018   Data           4  main.o(.data)
    app_task10_mq7_handle                    0x2000001c   Data           4  main.o(.data)
    app_task11_mq135_handle                  0x20000020   Data           4  main.o(.data)
    app_task12_esp8266_handle                0x20000024   Data           4  main.o(.data)
    SystemCoreClock                          0x20000038   Data           4  system_stm32f4xx.o(.data)
    AHBPrescTable                            0x2000003c   Data          16  system_stm32f4xx.o(.data)
    g_font_dot_matrix_32_index               0x2000004c   Data         112  lcd_font.o(.data)
    POINT_COLOR                              0x200000bc   Data           2  lcd_screen.o(.data)
    BACK_COLOR                               0x200000be   Data           2  lcd_screen.o(.data)
    CMD_RDX                                  0x200000c0   Data           1  lcd_touch.o(.data)
    CMD_RDY                                  0x200000c1   Data           1  lcd_touch.o(.data)
    tp_dev                                   0x200000c4   Data          52  lcd_touch.o(.data)
    ret_val                                  0x200000f8   Data           2  adc.o(.data)
    esp8266_transparent_transmission_sta     0x200000fc   Data           4  esp8266.o(.data)
    u1_count                                 0x20000104   Data           1  uart.o(.data)
    u1_flag                                  0x20000105   Data           1  uart.o(.data)
    u2_count                                 0x20000106   Data           1  uart.o(.data)
    u2_flag                                  0x20000107   Data           1  uart.o(.data)
    u3_flag                                  0x20000108   Data           1  uart.o(.data)
    u3_count                                 0x2000010a   Data           2  uart.o(.data)
    u3_len                                   0x2000010c   Data           2  uart.o(.data)
    __stdout                                 0x20000110   Data           4  uart.o(.data)
    LV_LAYOUT_FLEX                           0x20000174   Data           2  lv_flex.o(.data)
    LV_STYLE_FLEX_FLOW                       0x20000176   Data           2  lv_flex.o(.data)
    LV_STYLE_FLEX_MAIN_PLACE                 0x20000178   Data           2  lv_flex.o(.data)
    LV_STYLE_FLEX_CROSS_PLACE                0x2000017a   Data           2  lv_flex.o(.data)
    LV_STYLE_FLEX_TRACK_PLACE                0x2000017c   Data           2  lv_flex.o(.data)
    LV_STYLE_FLEX_GROW                       0x2000017e   Data           2  lv_flex.o(.data)
    LV_LAYOUT_GRID                           0x20000180   Data           2  lv_grid.o(.data)
    LV_STYLE_GRID_COLUMN_DSC_ARRAY           0x20000182   Data           2  lv_grid.o(.data)
    LV_STYLE_GRID_COLUMN_ALIGN               0x20000184   Data           2  lv_grid.o(.data)
    LV_STYLE_GRID_ROW_DSC_ARRAY              0x20000186   Data           2  lv_grid.o(.data)
    LV_STYLE_GRID_ROW_ALIGN                  0x20000188   Data           2  lv_grid.o(.data)
    LV_STYLE_GRID_CELL_COLUMN_POS            0x2000018a   Data           2  lv_grid.o(.data)
    LV_STYLE_GRID_CELL_COLUMN_SPAN           0x2000018c   Data           2  lv_grid.o(.data)
    LV_STYLE_GRID_CELL_X_ALIGN               0x2000018e   Data           2  lv_grid.o(.data)
    LV_STYLE_GRID_CELL_ROW_POS               0x20000190   Data           2  lv_grid.o(.data)
    LV_STYLE_GRID_CELL_ROW_SPAN              0x20000192   Data           2  lv_grid.o(.data)
    LV_STYLE_GRID_CELL_Y_ALIGN               0x20000194   Data           2  lv_grid.o(.data)
    _lv_layout_list                          0x200002b0   Data           4  lv_gc.o(.data)
    _lv_timer_act                            0x200002b4   Data           4  lv_gc.o(.data)
    _lv_theme_default_styles                 0x200002b8   Data           4  lv_gc.o(.data)
    _lv_theme_basic_styles                   0x200002bc   Data           4  lv_gc.o(.data)
    _lv_grad_cache_mem                       0x200002c0   Data           4  lv_gc.o(.data)
    _lv_style_custom_prop_flag_lookup_table  0x200002c4   Data           4  lv_gc.o(.data)
    _lv_style_custom_prop_flag_lookup_table_size 0x200002e0   Data           4  lv_style.o(.data)
    _lv_txt_encoded_size                     0x200002f8   Data           4  lv_txt.o(.data)
    _lv_txt_encoded_next                     0x200002fc   Data           4  lv_txt.o(.data)
    _lv_txt_encoded_get_byte_id              0x20000300   Data           4  lv_txt.o(.data)
    _lv_txt_unicode_to_encoded               0x20000304   Data           4  lv_txt.o(.data)
    _lv_txt_encoded_prev                     0x20000308   Data           4  lv_txt.o(.data)
    _lv_txt_encoded_get_char_id              0x2000030c   Data           4  lv_txt.o(.data)
    _lv_txt_get_encoded_length               0x20000310   Data           4  lv_txt.o(.data)
    disp_flush_enabled                       0x20000334   Data           1  lv_port_disp.o(.data)
    g_disp_drvp                              0x20000338   Data           4  lv_port_disp.o(.data)
    indev_touchpad                           0x20000340   Data           4  lv_port_indev.o(.data)
    pxCurrentTCB                             0x20000344   Data           4  tasks.o(.data)
    lcddev                                   0x200003bc   Data          14  lcd_screen.o(.bss)
    u1_recvbuf                               0x200003ca   Data         512  uart.o(.bss)
    u2_recvbuf                               0x200005ca   Data         512  uart.o(.bss)
    u3_recvbuf                               0x200007ca   Data         512  uart.o(.bss)
    _lv_timer_ll                             0x20000b30   Data          12  lv_gc.o(.bss)
    _lv_disp_ll                              0x20000b3c   Data          12  lv_gc.o(.bss)
    _lv_indev_ll                             0x20000b48   Data          12  lv_gc.o(.bss)
    _lv_fsdrv_ll                             0x20000b54   Data          12  lv_gc.o(.bss)
    _lv_anim_ll                              0x20000b60   Data          12  lv_gc.o(.bss)
    _lv_group_ll                             0x20000b6c   Data          12  lv_gc.o(.bss)
    _lv_img_decoder_ll                       0x20000b78   Data          12  lv_gc.o(.bss)
    _lv_obj_style_trans_ll                   0x20000b84   Data          12  lv_gc.o(.bss)
    _lv_img_cache_single                     0x20000b90   Data          44  lv_gc.o(.bss)
    lv_mem_buf                               0x20000bbc   Data         128  lv_gc.o(.bss)
    _lv_circle_cache                         0x20000c3c   Data         112  lv_gc.o(.bss)
    _lv_draw_mask_list                       0x20000cac   Data         128  lv_gc.o(.bss)
    xQueueRegistry                           0x2000c6b8   Data          64  queue.o(.bss)
    __initial_sp                             0x20015828   Data           0  startup_stm32f40_41xxx.o(STACK)



==============================================================================

Memory Map of the image

  Image Entry point : 0x08000189

  Load Region LR_IROM1 (Base: 0x08000000, Size: 0x00064314, Max: 0x00080000, ABSOLUTE, COMPRESSED[0x0006408c])

    Execution Region ER_IROM1 (Exec base: 0x08000000, Load base: 0x08000000, Size: 0x00063f58, Max: 0x00080000, ABSOLUTE)

    Exec Addr    Load Addr    Size         Type   Attr      Idx    E Section Name        Object

    0x08000000   0x08000000   0x00000188   Data   RO         2299    RESET               startup_stm32f40_41xxx.o
    0x08000188   0x08000188   0x00000000   Code   RO        27346  * .ARM.Collect$$$$00000000  mc_w.l(entry.o)
    0x08000188   0x08000188   0x00000004   Code   RO        27660    .ARM.Collect$$$$00000001  mc_w.l(entry2.o)
    0x0800018c   0x0800018c   0x00000004   Code   RO        27663    .ARM.Collect$$$$00000004  mc_w.l(entry5.o)
    0x08000190   0x08000190   0x00000000   Code   RO        27665    .ARM.Collect$$$$00000008  mc_w.l(entry7b.o)
    0x08000190   0x08000190   0x00000000   Code   RO        27667    .ARM.Collect$$$$0000000A  mc_w.l(entry8b.o)
    0x08000190   0x08000190   0x00000008   Code   RO        27668    .ARM.Collect$$$$0000000B  mc_w.l(entry9a.o)
    0x08000198   0x08000198   0x00000004   Code   RO        27675    .ARM.Collect$$$$0000000E  mc_w.l(entry12b.o)
    0x0800019c   0x0800019c   0x00000000   Code   RO        27670    .ARM.Collect$$$$0000000F  mc_w.l(entry10a.o)
    0x0800019c   0x0800019c   0x00000000   Code   RO        27672    .ARM.Collect$$$$00000011  mc_w.l(entry11a.o)
    0x0800019c   0x0800019c   0x00000004   Code   RO        27661    .ARM.Collect$$$$00002712  mc_w.l(entry2.o)
    0x080001a0   0x080001a0   0x000000be   Code   RO        27283    .emb_text           port.o
    0x0800025e   0x0800025e   0x00000002   PAD
    0x08000260   0x08000260   0x00000aa8   Code   RO            3    .text               main.o
    0x08000d08   0x08000d08   0x0000000c   Code   RO          684    .text               stm32f4xx_it.o
    0x08000d14   0x08000d14   0x0000017c   Code   RO          715    .text               system_stm32f4xx.o
    0x08000e90   0x08000e90   0x00000032   Code   RO          765    .text               my_lib.o
    0x08000ec2   0x08000ec2   0x00000002   PAD
    0x08000ec4   0x08000ec4   0x0000008c   Code   RO         1087    .text               buzzer.o
    0x08000f50   0x08000f50   0x00000044   Code   RO         1139    .text               key.o
    0x08000f94   0x08000f94   0x000001c4   Code   RO         1159    .text               led.o
    0x08001158   0x08001158   0x00000118   Code   RO         1179    .text               exti.o
    0x08001270   0x08001270   0x00000080   Code   RO         1203    .text               timer.o
    0x080012f0   0x080012f0   0x0000013e   Code   RO         1627    .text               at24cxx.o
    0x0800142e   0x0800142e   0x00000002   PAD
    0x08001430   0x08001430   0x00000224   Code   RO         1653    .text               iic.o
    0x08001654   0x08001654   0x00004778   Code   RO         1718    .text               lcd_screen.o
    0x08005dcc   0x08005dcc   0x00000c0c   Code   RO         1756    .text               lcd_touch.o
    0x080069d8   0x080069d8   0x000000a8   Code   RO         1793    .text               adc.o
    0x08006a80   0x08006a80   0x000001b4   Code   RO         1816    .text               dht11.o
    0x08006c34   0x08006c34   0x000000e4   Code   RO         1859    .text               mq2.o
    0x08006d18   0x08006d18   0x000000e8   Code   RO         1879    .text               mq7.o
    0x08006e00   0x08006e00   0x00000034   Code   RO         1899    .text               mq135.o
    0x08006e34   0x08006e34   0x00000448   Code   RO         1919    .text               esp8266.o
    0x0800727c   0x0800727c   0x00000260   Code   RO         1946    .text               esp8266_gettime.o
    0x080074dc   0x080074dc   0x000000d4   Code   RO         1991    .text               delay.o
    0x080075b0   0x080075b0   0x000003cc   Code   RO         2019    .text               uart.o
    0x0800797c   0x0800797c   0x0000020c   Code   RO         2052    .text               stm32f4xx_gpio.o
    0x08007b88   0x08007b88   0x00000480   Code   RO         2072    .text               stm32f4xx_rcc.o
    0x08008008   0x08008008   0x000000e0   Code   RO         2094    .text               stm32f4xx_exti.o
    0x080080e8   0x080080e8   0x0000007c   Code   RO         2114    .text               stm32f4xx_syscfg.o
    0x08008164   0x08008164   0x000000b0   Code   RO         2134    .text               misc.o
    0x08008214   0x08008214   0x000009dc   Code   RO         2154    .text               stm32f4xx_tim.o
    0x08008bf0   0x08008bf0   0x00000358   Code   RO         2175    .text               stm32f4xx_usart.o
    0x08008f48   0x08008f48   0x00000448   Code   RO         2215    .text               stm32f4xx_fsmc.o
    0x08009390   0x08009390   0x00000128   Code   RO         2238    .text               stm32f4xx_pwr.o
    0x080094b8   0x080094b8   0x00000a4c   Code   RO         2258    .text               stm32f4xx_rtc.o
    0x08009f04   0x08009f04   0x00000354   Code   RO         2279    .text               stm32f4xx_adc.o
    0x0800a258   0x0800a258   0x00000024   Code   RO         2300    .text               startup_stm32f40_41xxx.o
    0x0800a27c   0x0800a27c   0x00000558   Code   RO         2304    .text               lv_disp.o
    0x0800a7d4   0x0800a7d4   0x0000056c   Code   RO         2475    .text               lv_event.o
    0x0800ad40   0x0800ad40   0x00000584   Code   RO         2615    .text               lv_group.o
    0x0800b2c4   0x0800b2c4   0x00000dfc   Code   RO         2777    .text               lv_indev.o
    0x0800c0c0   0x0800c0c0   0x00000bbe   Code   RO         2836    .text               lv_indev_scroll.o
    0x0800cc7e   0x0800cc7e   0x00000002   PAD
    0x0800cc80   0x0800cc80   0x00000dd8   Code   RO         2921    .text               lv_obj.o
    0x0800da58   0x0800da58   0x000001d4   Code   RO         3263    .text               lv_obj_class.o
    0x0800dc2c   0x0800dc2c   0x00000764   Code   RO         3277    .text               lv_obj_draw.o
    0x0800e390   0x0800e390   0x0000165c   Code   RO         3430    .text               lv_obj_pos.o
    0x0800f9ec   0x0800f9ec   0x0000107c   Code   RO         3529    .text               lv_obj_scroll.o
    0x08010a68   0x08010a68   0x00000ee8   Code   RO         3630    .text               lv_obj_style.o
    0x08011950   0x08011950   0x000003de   Code   RO         3730    .text               lv_obj_style_gen.o
    0x08011d2e   0x08011d2e   0x00000002   PAD
    0x08011d30   0x08011d30   0x00000500   Code   RO         3775    .text               lv_obj_tree.o
    0x08012230   0x08012230   0x00001378   Code   RO         3855    .text               lv_refr.o
    0x080135a8   0x080135a8   0x000000d4   Code   RO         3966    .text               lv_theme.o
    0x0801367c   0x0801367c   0x0000000c   Code   RO         4383    .text               lv_draw.o
    0x08013688   0x08013688   0x0000040e   Code   RO         4523    .text               lv_draw_arc.o
    0x08013a96   0x08013a96   0x00000002   PAD
    0x08013a98   0x08013a98   0x000003a4   Code   RO         4574    .text               lv_draw_img.o
    0x08013e3c   0x08013e3c   0x00000618   Code   RO         4693    .text               lv_draw_label.o
    0x08014454   0x08014454   0x000000b2   Code   RO         4788    .text               lv_draw_layer.o
    0x08014506   0x08014506   0x00000058   Code   RO         4845    .text               lv_draw_line.o
    0x0801455e   0x0801455e   0x00000002   PAD
    0x08014560   0x08014560   0x000014cc   Code   RO         4997    .text               lv_draw_mask.o
    0x08015a2c   0x08015a2c   0x000000f4   Code   RO         5063    .text               lv_draw_rect.o
    0x08015b20   0x08015b20   0x00000036   Code   RO         5118    .text               lv_draw_transform.o
    0x08015b56   0x08015b56   0x00000002   PAD
    0x08015b58   0x08015b58   0x00000676   Code   RO         5163    .text               lv_img_buf.o
    0x080161ce   0x080161ce   0x00000002   PAD
    0x080161d0   0x080161d0   0x00000058   Code   RO         5200    .text               lv_img_cache.o
    0x08016228   0x08016228   0x00000818   Code   RO         5247    .text               lv_img_decoder.o
    0x08016a40   0x08016a40   0x000000f8   Code   RO         5308    .text               lv_draw_sw.o
    0x08016b38   0x08016b38   0x00000a70   Code   RO         5448    .text               lv_draw_sw_arc.o
    0x080175a8   0x080175a8   0x00000dba   Code   RO         5549    .text               lv_draw_sw_blend.o
    0x08018362   0x08018362   0x00000002   PAD
    0x08018364   0x08018364   0x00000400   Code   RO         5686    .text               lv_draw_sw_gradient.o
    0x08018764   0x08018764   0x000004e0   Code   RO         5744    .text               lv_draw_sw_img.o
    0x08018c44   0x08018c44   0x000001d4   Code   RO         5831    .text               lv_draw_sw_layer.o
    0x08018e18   0x08018e18   0x000003dc   Code   RO         5915    .text               lv_draw_sw_letter.o
    0x080191f4   0x080191f4   0x000007cc   Code   RO         6012    .text               lv_draw_sw_line.o
    0x080199c0   0x080199c0   0x0000027c   Code   RO         6104    .text               lv_draw_sw_polygon.o
    0x08019c3c   0x08019c3c   0x00001baa   Code   RO         6169    .text               lv_draw_sw_rect.o
    0x0801b7e6   0x0801b7e6   0x00000002   PAD
    0x0801b7e8   0x0801b7e8   0x000006a4   Code   RO         6217    .text               lv_draw_sw_transform.o
    0x0801be8c   0x0801be8c   0x0000000e   Code   RO         6304    .text               lv_extra.o
    0x0801be9a   0x0801be9a   0x00000002   PAD
    0x0801be9c   0x0801be9c   0x00000adc   Code   RO         6720    .text               lv_flex.o
    0x0801c978   0x0801c978   0x00000ad0   Code   RO         6895    .text               lv_grid.o
    0x0801d448   0x0801d448   0x00002528   Code   RO        13636    .text               lv_theme_default.o
    0x0801f970   0x0801f970   0x000004d4   Code   RO        14902    .text               lv_calendar.o
    0x0801fe44   0x0801fe44   0x000001b8   Code   RO        15323    .text               lv_calendar_header_arrow.o
    0x0801fffc   0x0801fffc   0x00000154   Code   RO        15512    .text               lv_calendar_header_dropdown.o
    0x08020150   0x08020150   0x00002080   Code   RO        15625    .text               lv_chart.o
    0x080221d0   0x080221d0   0x00000a78   Code   RO        16044    .text               lv_colorwheel.o
    0x08022c48   0x08022c48   0x00000360   Code   RO        16882    .text               lv_keyboard.o
    0x08022fa8   0x08022fa8   0x00000368   Code   RO        17077    .text               lv_led.o
    0x08023310   0x08023310   0x000007e4   Code   RO        17685    .text               lv_menu.o
    0x08023af4   0x08023af4   0x00000ca8   Code   RO        17869    .text               lv_meter.o
    0x0802479c   0x0802479c   0x00000486   Code   RO        19125    .text               lv_spinbox.o
    0x08024c22   0x08024c22   0x00000002   PAD
    0x08024c24   0x08024c24   0x000000a8   Code   RO        19544    .text               lv_spinner.o
    0x08024ccc   0x08024ccc   0x000004f0   Code   RO        19963    .text               lv_tabview.o
    0x080251bc   0x080251bc   0x0000022c   Code   RO        20383    .text               lv_tileview.o
    0x080253e8   0x080253e8   0x00000100   Code   RO        20555    .text               lv_win.o
    0x080254e8   0x080254e8   0x000000c6   Code   RO        20975    .text               lv_font.o
    0x080255ae   0x080255ae   0x00000002   PAD
    0x080255b0   0x080255b0   0x000002b8   Code   RO        21024    .text               lv_font_fmt_txt.o
    0x08025868   0x08025868   0x000007c8   Code   RO        22066    .text               lv_hal_disp.o
    0x08026030   0x08026030   0x0000013c   Code   RO        22270    .text               lv_hal_indev.o
    0x0802616c   0x0802616c   0x00000030   Code   RO        22435    .text               lv_hal_tick.o
    0x0802619c   0x0802619c   0x00000508   Code   RO        22459    .text               lv_anim.o
    0x080266a4   0x080266a4   0x000008c8   Code   RO        22553    .text               lv_area.o
    0x08026f6c   0x08026f6c   0x0000009c   Code   RO        22570    .text               lv_async.o
    0x08027008   0x08027008   0x0000038c   Code   RO        22614    .text               lv_color.o
    0x08027394   0x08027394   0x00000510   Code   RO        22631    .text               lv_fs.o
    0x080278a4   0x080278a4   0x000000c0   Code   RO        22672    .text               lv_gc.o
    0x08027964   0x08027964   0x000002b0   Code   RO        22697    .text               lv_ll.o
    0x08027c14   0x08027c14   0x000001ec   Code   RO        22731    .text               lv_math.o
    0x08027e00   0x08027e00   0x00000462   Code   RO        22746    .text               lv_mem.o
    0x08028262   0x08028262   0x00000002   PAD
    0x08028264   0x08028264   0x0000069c   Code   RO        22765    .text               lv_printf.o
    0x08028900   0x08028900   0x0000048c   Code   RO        22777    .text               lv_style.o
    0x08028d8c   0x08028d8c   0x00000334   Code   RO        22847    .text               lv_style_gen.o
    0x080290c0   0x080290c0   0x00000214   Code   RO        22873    .text               lv_timer.o
    0x080292d4   0x080292d4   0x00000838   Code   RO        22888    .text               lv_tlsf.o
    0x08029b0c   0x08029b0c   0x000006e4   Code   RO        22901    .text               lv_txt.o
    0x0802a1f0   0x0802a1f0   0x00000048   Code   RO        23009    .text               lv_utils.o
    0x0802a238   0x0802a238   0x00000f68   Code   RO        23024    .text               lv_arc.o
    0x0802b1a0   0x0802b1a0   0x0000085c   Code   RO        23195    .text               lv_bar.o
    0x0802b9fc   0x0802b9fc   0x00000034   Code   RO        23298    .text               lv_btn.o
    0x0802ba30   0x0802ba30   0x00001012   Code   RO        23322    .text               lv_btnmatrix.o
    0x0802ca42   0x0802ca42   0x00000002   PAD
    0x0802ca44   0x0802ca44   0x000003dc   Code   RO        23508    .text               lv_checkbox.o
    0x0802ce20   0x0802ce20   0x00000e4c   Code   RO        23599    .text               lv_dropdown.o
    0x0802dc6c   0x0802dc6c   0x00000bc6   Code   RO        23698    .text               lv_img.o
    0x0802e832   0x0802e832   0x00000002   PAD
    0x0802e834   0x0802e834   0x000010e8   Code   RO        23795    .text               lv_label.o
    0x0802f91c   0x0802f91c   0x000001e4   Code   RO        23893    .text               lv_line.o
    0x0802fb00   0x0802fb00   0x00000abc   Code   RO        23918    .text               lv_roller.o
    0x080305bc   0x080305bc   0x000007f2   Code   RO        24000    .text               lv_slider.o
    0x08030dae   0x08030dae   0x00000002   PAD
    0x08030db0   0x08030db0   0x00000340   Code   RO        24113    .text               lv_switch.o
    0x080310f0   0x080310f0   0x00001184   Code   RO        24214    .text               lv_table.o
    0x08032274   0x08032274   0x00001118   Code   RO        24297    .text               lv_textarea.o
    0x0803338c   0x0803338c   0x0000009c   Code   RO        24399    .text               lv_port_disp.o
    0x08033428   0x08033428   0x00000068   Code   RO        24428    .text               lv_port_indev.o
    0x08033490   0x08033490   0x00000334   Code   RO        27132    .text               event_groups.o
    0x080337c4   0x080337c4   0x0000008a   Code   RO        27162    .text               list.o
    0x0803384e   0x0803384e   0x00000002   PAD
    0x08033850   0x08033850   0x00000bec   Code   RO        27177    .text               queue.o
    0x0803443c   0x0803443c   0x0000134c   Code   RO        27215    .text               tasks.o
    0x08035788   0x08035788   0x000004f0   Code   RO        27238    .text               timers.o
    0x08035c78   0x08035c78   0x000001d0   Code   RO        27268    .text               heap_4.o
    0x08035e48   0x08035e48   0x00000254   Code   RO        27284    .text               port.o
    0x0803609c   0x0803609c   0x0000007e   Code   RO        27316    .text               rtc.o
    0x0803611a   0x0803611a   0x00000062   Code   RO        27349    .text               mc_w.l(uldiv.o)
    0x0803617c   0x0803617c   0x00000040   Code   RO        27353    .text               mc_w.l(memmovea.o)
    0x080361bc   0x080361bc   0x00000024   Code   RO        27357    .text               mc_w.l(memseta.o)
    0x080361e0   0x080361e0   0x00000018   Code   RO        27359    .text               mc_w.l(strcat.o)
    0x080361f8   0x080361f8   0x00000024   Code   RO        27361    .text               mc_w.l(strstr.o)
    0x0803621c   0x0803621c   0x0000000e   Code   RO        27367    .text               mc_w.l(strlen.o)
    0x0803622a   0x0803622a   0x0000001c   Code   RO        27369    .text               mc_w.l(strcmp.o)
    0x08036246   0x08036246   0x0000001a   Code   RO        27371    .text               mc_w.l(memcmp.o)
    0x08036260   0x08036260   0x00000012   Code   RO        27373    .text               mc_w.l(strcpy.o)
    0x08036272   0x08036272   0x0000001e   Code   RO        27375    .text               mc_w.l(strncmp.o)
    0x08036290   0x08036290   0x00000038   Code   RO        27642    .text               mc_w.l(__0sscanf.o)
    0x080362c8   0x080362c8   0x000000e0   Code   RO        27644    .text               mc_w.l(_scanf_str.o)
    0x080363a8   0x080363a8   0x0000001a   Code   RO        27646    .text               mc_w.l(atoi.o)
    0x080363c2   0x080363c2   0x000000e4   Code   RO        27648    .text               mf_w.l(dmul.o)
    0x080364a6   0x080364a6   0x0000001a   Code   RO        27650    .text               mf_w.l(dfltui.o)
    0x080364c0   0x080364c0   0x00000032   Code   RO        27652    .text               mf_w.l(dfixui.o)
    0x080364f2   0x080364f2   0x00000026   Code   RO        27654    .text               mf_w.l(f2d.o)
    0x08036518   0x08036518   0x00000030   Code   RO        27656    .text               mf_w.l(cdcmple.o)
    0x08036548   0x08036548   0x00000030   Code   RO        27658    .text               mf_w.l(cdrcmple.o)
    0x08036578   0x08036578   0x0000002c   Code   RO        27676    .text               mc_w.l(uidiv.o)
    0x080365a4   0x080365a4   0x0000001e   Code   RO        27678    .text               mc_w.l(llshl.o)
    0x080365c2   0x080365c2   0x00000020   Code   RO        27680    .text               mc_w.l(llushr.o)
    0x080365e2   0x080365e2   0x00000002   PAD
    0x080365e4   0x080365e4   0x00000028   Code   RO        27689    .text               mc_w.l(scanf_char.o)
    0x0803660c   0x0803660c   0x00000040   Code   RO        27691    .text               mc_w.l(_sgetc.o)
    0x0803664c   0x0803664c   0x00000070   Code   RO        27693    .text               mc_w.l(strtol.o)
    0x080366bc   0x080366bc   0x00000000   Code   RO        27695    .text               mc_w.l(iusefp.o)
    0x080366bc   0x080366bc   0x000000ba   Code   RO        27696    .text               mf_w.l(depilogue.o)
    0x08036776   0x08036776   0x0000014e   Code   RO        27698    .text               mf_w.l(dadd.o)
    0x080368c4   0x080368c4   0x000000de   Code   RO        27700    .text               mf_w.l(ddiv.o)
    0x080369a2   0x080369a2   0x000000a2   Code   RO        27702    .text               mf_w.l(dsqrt.o)
    0x08036a44   0x08036a44   0x00000030   Code   RO        27704    .text               mf_w.l(dfixul.o)
    0x08036a74   0x08036a74   0x00000024   Code   RO        27706    .text               mc_w.l(init.o)
    0x08036a98   0x08036a98   0x00000024   Code   RO        27708    .text               mc_w.l(llsshr.o)
    0x08036abc   0x08036abc   0x00000008   Code   RO        27712    .text               mc_w.l(ctype_o.o)
    0x08036ac4   0x08036ac4   0x00000012   Code   RO        27734    .text               mc_w.l(isspace_o.o)
    0x08036ad6   0x08036ad6   0x00000002   PAD
    0x08036ad8   0x08036ad8   0x00000330   Code   RO        27740    .text               mc_w.l(_scanf.o)
    0x08036e08   0x08036e08   0x0000009e   Code   RO        27742    .text               mc_w.l(_strtoul.o)
    0x08036ea6   0x08036ea6   0x0000001c   Code   RO        27747    .text               mc_w.l(_chval.o)
    0x08036ec2   0x08036ec2   0x00000056   Code   RO        27757    .text               mc_w.l(__dczerorl2.o)
    0x08036f18   0x08036f18   0x00000020   Code   RO        27614    i.__0printf         mc_w.l(printfa.o)
    0x08036f38   0x08036f38   0x00000028   Code   RO        27616    i.__0sprintf        mc_w.l(printfa.o)
    0x08036f60   0x08036f60   0x00000008   Code   RO        27682    i.__aeabi_errno_addr  mc_w.l(errno.o)
    0x08036f68   0x08036f68   0x0000007a   Code   RO        27334    i.__hardfp_sqrt     m_wm.l(sqrt.o)
    0x08036fe2   0x08036fe2   0x0000000e   Code   RO        27751    i.__scatterload_copy  mc_w.l(handlers.o)
    0x08036ff0   0x08036ff0   0x00000002   Code   RO        27752    i.__scatterload_null  mc_w.l(handlers.o)
    0x08036ff2   0x08036ff2   0x0000000e   Code   RO        27753    i.__scatterload_zeroinit  mc_w.l(handlers.o)
    0x08037000   0x08037000   0x0000000c   Code   RO        27684    i.__set_errno       mc_w.l(errno.o)
    0x0803700c   0x0803700c   0x00000184   Code   RO        27621    i._fp_digits        mc_w.l(printfa.o)
    0x08037190   0x08037190   0x000006b4   Code   RO        27622    i._printf_core      mc_w.l(printfa.o)
    0x08037844   0x08037844   0x00000024   Code   RO        27623    i._printf_post_padding  mc_w.l(printfa.o)
    0x08037868   0x08037868   0x0000002e   Code   RO        27624    i._printf_pre_padding  mc_w.l(printfa.o)
    0x08037896   0x08037896   0x0000000a   Code   RO        27626    i._sputc            mc_w.l(printfa.o)
    0x080378a0   0x080378a0   0x0000004c   Data   RO            4    .constdata          main.o
    0x080378ec   0x080378ec   0x00025800   Data   RO         1075    .constdata          chezaibeijing.o
    0x0805d0ec   0x0805d0ec   0x0000000c   Data   RO         1076    .constdata          chezaibeijing.o
    0x0805d0f8   0x0805d0f8   0x00000474   Data   RO         1673    .constdata          lcd_font.o
    0x0805d56c   0x0805d56c   0x000005f0   Data   RO         1674    .constdata          lcd_font.o
    0x0805db5c   0x0805db5c   0x00000d5c   Data   RO         1675    .constdata          lcd_font.o
    0x0805e8b8   0x0805e8b8   0x00000e00   Data   RO         1676    .constdata          lcd_font.o
    0x0805f6b8   0x0805f6b8   0x00000004   Data   RO         1757    .constdata          lcd_touch.o
    0x0805f6bc   0x0805f6bc   0x0000001c   Data   RO         2216    .constdata          stm32f4xx_fsmc.o
    0x0805f6d8   0x0805f6d8   0x0000001c   Data   RO         2922    .constdata          lv_obj.o
    0x0805f6f4   0x0805f6f4   0x00000008   Data   RO         3431    .constdata          lv_obj_pos.o
    0x0805f6fc   0x0805f6fc   0x00000116   Data   RO         5917    .constdata          lv_draw_sw_letter.o
    0x0805f812   0x0805f812   0x00000021   Data   RO         6013    .constdata          lv_draw_sw_line.o
    0x0805f833   0x0805f833   0x00000001   PAD
    0x0805f834   0x0805f834   0x00000008   Data   RO         6105    .constdata          lv_draw_sw_polygon.o
    0x0805f83c   0x0805f83c   0x00000016   Data   RO        13638    .constdata          lv_theme_default.o
    0x0805f852   0x0805f852   0x00000002   PAD
    0x0805f854   0x0805f854   0x0000001c   Data   RO        14903    .constdata          lv_calendar.o
    0x0805f870   0x0805f870   0x0000001c   Data   RO        15324    .constdata          lv_calendar_header_arrow.o
    0x0805f88c   0x0805f88c   0x0000001c   Data   RO        15513    .constdata          lv_calendar_header_dropdown.o
    0x0805f8a8   0x0805f8a8   0x0000001c   Data   RO        15626    .constdata          lv_chart.o
    0x0805f8c4   0x0805f8c4   0x0000001c   Data   RO        16045    .constdata          lv_colorwheel.o
    0x0805f8e0   0x0805f8e0   0x0000001c   Data   RO        16883    .constdata          lv_keyboard.o
    0x0805f8fc   0x0805f8fc   0x000000b0   Data   RO        16884    .constdata          lv_keyboard.o
    0x0805f9ac   0x0805f9ac   0x00000050   Data   RO        16885    .constdata          lv_keyboard.o
    0x0805f9fc   0x0805f9fc   0x000000b0   Data   RO        16886    .constdata          lv_keyboard.o
    0x0805faac   0x0805faac   0x00000050   Data   RO        16887    .constdata          lv_keyboard.o
    0x0805fafc   0x0805fafc   0x000000b0   Data   RO        16888    .constdata          lv_keyboard.o
    0x0805fbac   0x0805fbac   0x00000050   Data   RO        16889    .constdata          lv_keyboard.o
    0x0805fbfc   0x0805fbfc   0x00000054   Data   RO        16890    .constdata          lv_keyboard.o
    0x0805fc50   0x0805fc50   0x00000022   Data   RO        16891    .constdata          lv_keyboard.o
    0x0805fc72   0x0805fc72   0x00000002   PAD
    0x0805fc74   0x0805fc74   0x0000001c   Data   RO        17078    .constdata          lv_led.o
    0x0805fc90   0x0805fc90   0x00000054   Data   RO        17497    .constdata          lv_list.o
    0x0805fce4   0x0805fce4   0x000000fc   Data   RO        17686    .constdata          lv_menu.o
    0x0805fde0   0x0805fde0   0x0000001c   Data   RO        17870    .constdata          lv_meter.o
    0x0805fdfc   0x0805fdfc   0x00000054   Data   RO        18288    .constdata          lv_msgbox.o
    0x0805fe50   0x0805fe50   0x0000001c   Data   RO        19126    .constdata          lv_spinbox.o
    0x0805fe6c   0x0805fe6c   0x0000001c   Data   RO        19545    .constdata          lv_spinner.o
    0x0805fe88   0x0805fe88   0x0000001c   Data   RO        19964    .constdata          lv_tabview.o
    0x0805fea4   0x0805fea4   0x00000038   Data   RO        20384    .constdata          lv_tileview.o
    0x0805fedc   0x0805fedc   0x0000001c   Data   RO        20556    .constdata          lv_win.o
    0x0805fef8   0x0805fef8   0x00002280   Data   RO        21516    .constdata          lv_font_montserrat_14.o
    0x08062178   0x08062178   0x000004f0   Data   RO        21517    .constdata          lv_font_montserrat_14.o
    0x08062668   0x08062668   0x0000007c   Data   RO        21518    .constdata          lv_font_montserrat_14.o
    0x080626e4   0x080626e4   0x00000028   Data   RO        21519    .constdata          lv_font_montserrat_14.o
    0x0806270c   0x0806270c   0x0000009e   Data   RO        21520    .constdata          lv_font_montserrat_14.o
    0x080627aa   0x080627aa   0x0000009e   Data   RO        21521    .constdata          lv_font_montserrat_14.o
    0x08062848   0x08062848   0x00000bad   Data   RO        21522    .constdata          lv_font_montserrat_14.o
    0x080633f5   0x080633f5   0x00000003   PAD
    0x080633f8   0x080633f8   0x00000010   Data   RO        21523    .constdata          lv_font_montserrat_14.o
    0x08063408   0x08063408   0x00000018   Data   RO        21524    .constdata          lv_font_montserrat_14.o
    0x08063420   0x08063420   0x0000001c   Data   RO        21525    .constdata          lv_font_montserrat_14.o
    0x0806343c   0x0806343c   0x0000017c   Data   RO        22615    .constdata          lv_color.o
    0x080635b8   0x080635b8   0x000000b6   Data   RO        22732    .constdata          lv_math.o
    0x0806366e   0x0806366e   0x00000002   PAD
    0x08063670   0x08063670   0x00000075   Data   RO        22778    .constdata          lv_style.o
    0x080636e5   0x080636e5   0x00000003   PAD
    0x080636e8   0x080636e8   0x0000001c   Data   RO        23025    .constdata          lv_arc.o
    0x08063704   0x08063704   0x0000001c   Data   RO        23196    .constdata          lv_bar.o
    0x08063720   0x08063720   0x0000001c   Data   RO        23299    .constdata          lv_btn.o
    0x0806373c   0x0806373c   0x0000001c   Data   RO        23323    .constdata          lv_btnmatrix.o
    0x08063758   0x08063758   0x0000001c   Data   RO        23509    .constdata          lv_checkbox.o
    0x08063774   0x08063774   0x00000038   Data   RO        23600    .constdata          lv_dropdown.o
    0x080637ac   0x080637ac   0x0000001c   Data   RO        23699    .constdata          lv_img.o
    0x080637c8   0x080637c8   0x0000001c   Data   RO        23796    .constdata          lv_label.o
    0x080637e4   0x080637e4   0x0000001c   Data   RO        23894    .constdata          lv_line.o
    0x08063800   0x08063800   0x00000038   Data   RO        23919    .constdata          lv_roller.o
    0x08063838   0x08063838   0x0000001c   Data   RO        24001    .constdata          lv_slider.o
    0x08063854   0x08063854   0x0000001c   Data   RO        24114    .constdata          lv_switch.o
    0x08063870   0x08063870   0x0000001c   Data   RO        24215    .constdata          lv_table.o
    0x0806388c   0x0806388c   0x0000001c   Data   RO        24298    .constdata          lv_textarea.o
    0x080638a8   0x080638a8   0x00000081   Data   RO        27713    .constdata          mc_w.l(ctype_o.o)
    0x08063929   0x08063929   0x00000003   PAD
    0x0806392c   0x0806392c   0x00000004   Data   RO        27714    .constdata          mc_w.l(ctype_o.o)
    0x08063930   0x08063930   0x0000004c   Data   RO            5    .conststring        main.o
    0x0806397c   0x0806397c   0x0000006f   Data   RO         1677    .conststring        lcd_font.o
    0x080639eb   0x080639eb   0x00000001   PAD
    0x080639ec   0x080639ec   0x00000079   Data   RO         1758    .conststring        lcd_touch.o
    0x08063a65   0x08063a65   0x00000003   PAD
    0x08063a68   0x08063a68   0x0000001b   Data   RO        14904    .conststring        lv_calendar.o
    0x08063a83   0x08063a83   0x00000001   PAD
    0x08063a84   0x08063a84   0x00000065   Data   RO        15325    .conststring        lv_calendar_header_arrow.o
    0x08063ae9   0x08063ae9   0x00000003   PAD
    0x08063aec   0x08063aec   0x0000028c   Data   RO        15514    .conststring        lv_calendar_header_dropdown.o
    0x08063d78   0x08063d78   0x000000a1   Data   RO        16892    .conststring        lv_keyboard.o
    0x08063e19   0x08063e19   0x00000003   PAD
    0x08063e1c   0x08063e1c   0x0000006c   Data   RO        16893    .conststring        lv_keyboard.o
    0x08063e88   0x08063e88   0x00000082   Data   RO        16894    .conststring        lv_keyboard.o
    0x08063f0a   0x08063f0a   0x00000002   PAD
    0x08063f0c   0x08063f0c   0x00000004   Data   RO        16895    .conststring        lv_keyboard.o
    0x08063f10   0x08063f10   0x00000025   Data   RO        23324    .conststring        lv_btnmatrix.o
    0x08063f35   0x08063f35   0x00000003   PAD
    0x08063f38   0x08063f38   0x00000020   Data   RO        27749    Region$$Table       anon$$obj.o


    Execution Region RW_IRAM1 (Exec base: 0x20000000, Load base: 0x08063f58, Size: 0x00015828, Max: 0x00020000, ABSOLUTE, COMPRESSED[0x00000134])

    Exec Addr    Load Addr    Size         Type   Attr      Idx    E Section Name        Object

    0x20000000   COMPRESSED   0x00000038   Data   RW            6    .data               main.o
    0x20000038   COMPRESSED   0x00000014   Data   RW          716    .data               system_stm32f4xx.o
    0x2000004c   COMPRESSED   0x00000070   Data   RW         1678    .data               lcd_font.o
    0x200000bc   COMPRESSED   0x00000004   Data   RW         1720    .data               lcd_screen.o
    0x200000c0   COMPRESSED   0x00000038   Data   RW         1759    .data               lcd_touch.o
    0x200000f8   COMPRESSED   0x00000002   Data   RW         1794    .data               adc.o
    0x200000fa   COMPRESSED   0x00000002   PAD
    0x200000fc   COMPRESSED   0x00000004   Data   RW         1920    .data               esp8266.o
    0x20000100   COMPRESSED   0x00000004   Data   RW         1992    .data               delay.o
    0x20000104   COMPRESSED   0x0000000a   Data   RW         2021    .data               uart.o
    0x2000010e   COMPRESSED   0x00000002   PAD
    0x20000110   COMPRESSED   0x00000004   Data   RW         2022    .data               uart.o
    0x20000114   COMPRESSED   0x00000010   Data   RW         2073    .data               stm32f4xx_rcc.o
    0x20000124   COMPRESSED   0x00000008   Data   RW         2476    .data               lv_event.o
    0x2000012c   COMPRESSED   0x00000004   Data   RW         2616    .data               lv_group.o
    0x20000130   COMPRESSED   0x0000000c   Data   RW         2778    .data               lv_indev.o
    0x2000013c   COMPRESSED   0x00000008   Data   RW         2923    .data               lv_obj.o
    0x20000144   COMPRESSED   0x00000008   Data   RW         3432    .data               lv_obj_pos.o
    0x2000014c   COMPRESSED   0x00000001   Data   RW         3631    .data               lv_obj_style.o
    0x2000014d   COMPRESSED   0x00000003   PAD
    0x20000150   COMPRESSED   0x00000010   Data   RW         3857    .data               lv_refr.o
    0x20000160   COMPRESSED   0x0000000c   Data   RW         5687    .data               lv_draw_sw_gradient.o
    0x2000016c   COMPRESSED   0x00000008   Data   RW         5919    .data               lv_draw_sw_letter.o
    0x20000174   COMPRESSED   0x0000000c   Data   RW         6721    .data               lv_flex.o
    0x20000180   COMPRESSED   0x00000016   Data   RW         6896    .data               lv_grid.o
    0x20000196   COMPRESSED   0x00000002   PAD
    0x20000198   COMPRESSED   0x00000020   Data   RW        13639    .data               lv_theme_default.o
    0x200001b8   COMPRESSED   0x0000001c   Data   RW        14905    .data               lv_calendar.o
    0x200001d4   COMPRESSED   0x00000030   Data   RW        15326    .data               lv_calendar_header_arrow.o
    0x20000204   COMPRESSED   0x00000008   Data   RW        15515    .data               lv_calendar_header_dropdown.o
    0x2000020c   COMPRESSED   0x00000008   Data   RW        16046    .data               lv_colorwheel.o
    0x20000214   COMPRESSED   0x00000048   Data   RW        16896    .data               lv_keyboard.o
    0x2000025c   COMPRESSED   0x00000008   Data   RW        19546    .data               lv_spinner.o
    0x20000264   COMPRESSED   0x00000004   Data   RW        19965    .data               lv_tabview.o
    0x20000268   COMPRESSED   0x0000000c   Data   RW        20385    .data               lv_tileview.o
    0x20000274   COMPRESSED   0x00000002   Data   RW        20557    .data               lv_win.o
    0x20000276   COMPRESSED   0x00000002   PAD
    0x20000278   COMPRESSED   0x00000008   Data   RW        21526    .data               lv_font_montserrat_14.o
    0x20000280   COMPRESSED   0x00000010   Data   RW        22067    .data               lv_hal_disp.o
    0x20000290   COMPRESSED   0x00000008   Data   RW        22436    .data               lv_hal_tick.o
    0x20000298   COMPRESSED   0x0000000c   Data   RW        22460    .data               lv_anim.o
    0x200002a4   COMPRESSED   0x0000000c   Data   RW        22554    .data               lv_area.o
    0x200002b0   COMPRESSED   0x00000018   Data   RW        22674    .data               lv_gc.o
    0x200002c8   COMPRESSED   0x00000004   Data   RW        22733    .data               lv_math.o
    0x200002cc   COMPRESSED   0x00000010   Data   RW        22748    .data               lv_mem.o
    0x200002dc   COMPRESSED   0x00000008   Data   RW        22779    .data               lv_style.o
    0x200002e4   COMPRESSED   0x00000014   Data   RW        22874    .data               lv_timer.o
    0x200002f8   COMPRESSED   0x0000000c   Data   RW        22902    .data               lv_txt.o
    0x20000304   COMPRESSED   0x00000004   Data   RW        22903    .data               lv_txt.o
    0x20000308   COMPRESSED   0x00000004   Data   RW        22905    .data               lv_txt.o
    0x2000030c   COMPRESSED   0x00000004   Data   RW        22906    .data               lv_txt.o
    0x20000310   COMPRESSED   0x00000004   Data   RW        22907    .data               lv_txt.o
    0x20000314   COMPRESSED   0x0000001c   Data   RW        23325    .data               lv_btnmatrix.o
    0x20000330   COMPRESSED   0x00000004   Data   RW        24299    .data               lv_textarea.o
    0x20000334   COMPRESSED   0x00000008   Data   RW        24401    .data               lv_port_disp.o
    0x2000033c   COMPRESSED   0x00000008   Data   RW        24430    .data               lv_port_indev.o
    0x20000344   COMPRESSED   0x0000003c   Data   RW        27217    .data               tasks.o
    0x20000380   COMPRESSED   0x00000014   Data   RW        27240    .data               timers.o
    0x20000394   COMPRESSED   0x00000018   Data   RW        27270    .data               heap_4.o
    0x200003ac   COMPRESSED   0x0000000c   Data   RW        27285    .data               port.o
    0x200003b8   COMPRESSED   0x00000004   Data   RW        27685    .data               mc_w.l(errno.o)
    0x200003bc        -       0x0000000e   Zero   RW         1719    .bss                lcd_screen.o
    0x200003ca        -       0x00000600   Zero   RW         2020    .bss                uart.o
    0x200009ca   COMPRESSED   0x00000002   PAD
    0x200009cc        -       0x00000018   Zero   RW         3856    .bss                lv_refr.o
    0x200009e4        -       0x00000100   Zero   RW         5916    .bss                lv_draw_sw_letter.o
    0x20000ae4        -       0x0000004c   Zero   RW        13637    .bss                lv_theme_default.o
    0x20000b30        -       0x000001fc   Zero   RW        22673    .bss                lv_gc.o
    0x20000d2c        -       0x0000a000   Zero   RW        22747    .bss                lv_mem.o
    0x2000ad2c        -       0x0000196c   Zero   RW        24400    .bss                lv_port_disp.o
    0x2000c698        -       0x00000020   Zero   RW        24429    .bss                lv_port_indev.o
    0x2000c6b8        -       0x00000040   Zero   RW        27178    .bss                queue.o
    0x2000c6f8        -       0x00000104   Zero   RW        27216    .bss                tasks.o
    0x2000c7fc        -       0x00000028   Zero   RW        27239    .bss                timers.o
    0x2000c824        -       0x00008000   Zero   RW        27269    .bss                heap_4.o
    0x20014824   COMPRESSED   0x00000004   PAD
    0x20014828        -       0x00001000   Zero   RW         2297    STACK               startup_stm32f40_41xxx.o


==============================================================================

Image component sizes


      Code (inc. data)   RO Data    RW Data    ZI Data      Debug   Object Name

       168         12          0          2          0       1072   adc.o
       318          0          0          0          0       2902   at24cxx.o
       140          8          0          0          0     246379   buzzer.o
         0          0     153612          0          0        664   chezaibeijing.o
       212         14          0          4          0       1670   delay.o
       436         10          0          0          0       2004   dht11.o
      1096        406          0          4          0       4125   esp8266.o
       608        338          0          0          0       1038   esp8266_gettime.o
       820          6          0          0          0      15827   event_groups.o
       280         10          0          0          0       1179   exti.o
       464          8          0         24      32768       3808   heap_4.o
       548          8          0          0          0       2028   iic.o
        68          8          0          0          0        539   key.o
         0          0       9775        112          0        840   lcd_font.o
     18296        148          0          4         14      27152   lcd_screen.o
      3084        256        125         56          0       7363   lcd_touch.o
       452         16          0          0          0       2000   led.o
       138          0          0          0          0       1978   list.o
      1288         24          0         12          0      28849   lv_anim.o
      3944          8         28          0          0      74729   lv_arc.o
      2248         26          0         12          0      10958   lv_area.o
       156          6          0          0          0       2185   lv_async.o
      2140         24         28          0          0      56101   lv_bar.o
         0          0          0          0          0       5155   lv_bidi.o
        52          6         28          0          0       1387   lv_btn.o
      4114         26         65         28          0      54761   lv_btnmatrix.o
      1236         24         55         28          0      58716   lv_calendar.o
       440         32        129         48          0      51115   lv_calendar_header_arrow.o
       340         20        680          8          0      34366   lv_calendar_header_dropdown.o
      8320         28         28          0          0      91892   lv_chart.o
       988         16         28          0          0      45188   lv_checkbox.o
       908         16        380          0          0      10894   lv_color.o
      2680         12         28          8          0      76275   lv_colorwheel.o
      1368         38          0          0          0      55557   lv_disp.o
        12          0          0          0          0      31388   lv_draw.o
      1038          0          0          0          0      22032   lv_draw_arc.o
       932         38          0          0          0      29279   lv_draw_img.o
      1560         16          0          0          0      29006   lv_draw_label.o
       178          0          0          0          0      18053   lv_draw_layer.o
        88          0          0          0          0      30738   lv_draw_line.o
      5324         36          0          0          0      26115   lv_draw_mask.o
       244          4          0          0          0      22439   lv_draw_rect.o
       248         54          0          0          0      39051   lv_draw_sw.o
      2672          0          0          0          0      37538   lv_draw_sw_arc.o
      3514         16          0          0          0      52251   lv_draw_sw_blend.o
      1024         20          0         12          0      20490   lv_draw_sw_gradient.o
      1248          0          0          0          0      25805   lv_draw_sw_img.o
       468          0          0          0          0      31897   lv_draw_sw_layer.o
       988         12        278          8        256      23171   lv_draw_sw_letter.o
      1996          4         33          0          0      24196   lv_draw_sw_line.o
       636          4          8          0          0      20079   lv_draw_sw_polygon.o
      7082          0          0          0          0      19004   lv_draw_sw_rect.o
      1700          6          0          0          0      40946   lv_draw_sw_transform.o
        54          0          0          0          0      12232   lv_draw_transform.o
      3660         60         56          0          0      56319   lv_dropdown.o
      1388         34          0          8          0      51449   lv_event.o
        14          0          0          0          0        520   lv_extra.o
      2780         56          0         12          0      72915   lv_flex.o
       198          0          0          0          0       6427   lv_font.o
       696         14          0          0          0       7029   lv_font_fmt_txt.o
         0          0      13633          8          0       2408   lv_font_montserrat_14.o
      1296         16          0          0          0      10361   lv_fs.o
       192         12          0         24        508       2150   lv_gc.o
      2768         40          0         22          0      77267   lv_grid.o
      1412         24          0          4          0      54602   lv_group.o
      1992         64          0         16          0      58379   lv_hal_disp.o
       316          8          0          0          0      46959   lv_hal_indev.o
        48          6          0          8          0       1590   lv_hal_tick.o
      3014         10         28          0          0      52058   lv_img.o
      1654         38          0          0          0      15227   lv_img_buf.o
        88          4          0          0          0       5811   lv_img_cache.o
      2072         36          0          0          0      18055   lv_img_decoder.o
      3580         16          0         12          0      35220   lv_indev.o
      3006          8          0          0          0      49663   lv_indev_scroll.o
       864         62       1317         72          0      56310   lv_keyboard.o
      4328         72         28          0          0      62983   lv_label.o
       872         10         28          0          0      54469   lv_led.o
       484          6         28          0          0      12774   lv_line.o
         0          0         84          0          0      48845   lv_list.o
       688          0          0          0          0       5777   lv_ll.o
       492         10        182          4          0       3897   lv_math.o
      1122         22          0         16      40960       6981   lv_mem.o
      2020         40        252          0          0      59938   lv_menu.o
      3240         22         28          0          0      78311   lv_meter.o
         0          0         84          0          0      51892   lv_msgbox.o
      3544         34         28          8          0      58390   lv_obj.o
       468          4          0          0          0       2904   lv_obj_class.o
      1892          0          0          0          0      64219   lv_obj_draw.o
      5724         56          8          8          0      64200   lv_obj_pos.o
      4220         34          0          0          0      59730   lv_obj_scroll.o
      3816         46          0          1          0      62409   lv_obj_style.o
       990          0          0          0          0      37931   lv_obj_style_gen.o
      1280          8          0          0          0      35567   lv_obj_tree.o
       156         20          0          8       6508       2272   lv_port_disp.o
       104         20          0          8         32       2598   lv_port_indev.o
      1692         10          0          0          0       9347   lv_printf.o
      4984         90          0         16         24      64184   lv_refr.o
      2748         84         56          0          0      51016   lv_roller.o
      2034          4         28          0          0      50162   lv_slider.o
      1158         12         28          0          0      59734   lv_spinbox.o
       168         22         28          8          0      52691   lv_spinner.o
      1164         30        117          8          0      23258   lv_style.o
       820          0          0          0          0      31436   lv_style_gen.o
       832         12         28          0          0      45246   lv_switch.o
      4484         16         28          0          0      59204   lv_table.o
      1264         30         28          4          0      67535   lv_tabview.o
      4376         90         28          4          0      66338   lv_textarea.o
       212         10          0          0          0      51724   lv_theme.o
      9512        308         22         32         76      63882   lv_theme_default.o
       556         14         56         12          0      52575   lv_tileview.o
       532         14          0         20          0       5243   lv_timer.o
      2104          8          0          0          0      20660   lv_tlsf.o
      1764         18          0         28          0      14741   lv_txt.o
        72          0          0          0          0        984   lv_utils.o
       256         10         28          2          0      52762   lv_win.o
         0          0          0          0          0      32935   lvgl_font.o
      2728        802        152         56          0     404216   main.o
       176         12          0          0          0       2005   misc.o
        52          6          0          0          0        668   mq135.o
       228         22          0          0          0       1003   mq2.o
       232         22          0          0          0       1007   mq7.o
        50          0          0          0          0       1156   my_lib.o
       786         46          0         12          0       8865   port.o
      3052         14          0          0         64      21950   queue.o
       126          0          0          0          0       1001   rtc.o
        36          8        392          0       4096        840   startup_stm32f40_41xxx.o
       852         20          0          0          0      10974   stm32f4xx_adc.o
       224         10          0          0          0       2455   stm32f4xx_exti.o
      1096         10         28          0          0       6158   stm32f4xx_fsmc.o
       524         44          0          0          0       4525   stm32f4xx_gpio.o
        12          0          0          0          0        935   stm32f4xx_it.o
       296         12          0          0          0       3811   stm32f4xx_pwr.o
      1152         48          0         16          0      13400   stm32f4xx_rcc.o
      2636         48          0          0          0      16294   stm32f4xx_rtc.o
       124         16          0          0          0       1917   stm32f4xx_syscfg.o
      2524         52          0          0          0      24058   stm32f4xx_tim.o
       856         32          0          0          0       8348   stm32f4xx_usart.o
       380         36          0         20          0       1903   system_stm32f4xx.o
      4940         86          0         60        260      31129   tasks.o
       128          6          0          0          0        782   timer.o
      1264         46          0         20         40      20890   timers.o
       972         36          0         14       1536       5592   uart.o

    ----------------------------------------------------------------------
    221050       4892     182200        952      87148    4464751   Object Totals
         0          0         32          0          0          0   (incl. Generated)
        38          0         29         11          6          0   (incl. Padding)

    ----------------------------------------------------------------------

      Code (inc. data)   RO Data    RW Data    ZI Data      Debug   Library Member Name

       122          0          0          0          0        148   sqrt.o
        56          8          0          0          0         84   __0sscanf.o
        86          0          0          0          0          0   __dczerorl2.o
        28          0          0          0          0         68   _chval.o
       816          6          0          0          0        112   _scanf.o
       224          0          0          0          0         96   _scanf_str.o
        64          0          0          0          0         84   _sgetc.o
       158          0          0          0          0         92   _strtoul.o
        26          0          0          0          0         80   atoi.o
         8          4        133          0          0         68   ctype_o.o
         0          0          0          0          0          0   entry.o
         0          0          0          0          0          0   entry10a.o
         0          0          0          0          0          0   entry11a.o
         4          0          0          0          0          0   entry12b.o
         8          4          0          0          0          0   entry2.o
         4          0          0          0          0          0   entry5.o
         0          0          0          0          0          0   entry7b.o
         0          0          0          0          0          0   entry8b.o
         8          4          0          0          0          0   entry9a.o
        20         10          0          4          0        136   errno.o
        30          0          0          0          0          0   handlers.o
        36          8          0          0          0         68   init.o
        18          0          0          0          0         76   isspace_o.o
         0          0          0          0          0          0   iusefp.o
        30          0          0          0          0         68   llshl.o
        36          0          0          0          0         68   llsshr.o
        32          0          0          0          0         68   llushr.o
        26          0          0          0          0         80   memcmp.o
        64          0          0          0          0         76   memmovea.o
        36          0          0          0          0        108   memseta.o
      2268         96          0          0          0        616   printfa.o
        40          8          0          0          0         84   scanf_char.o
        24          0          0          0          0         68   strcat.o
        28          0          0          0          0         76   strcmp.o
        18          0          0          0          0         68   strcpy.o
        14          0          0          0          0         68   strlen.o
        30          0          0          0          0         80   strncmp.o
        36          0          0          0          0         80   strstr.o
       112          0          0          0          0         88   strtol.o
        44          0          0          0          0         80   uidiv.o
        98          0          0          0          0         92   uldiv.o
        48          0          0          0          0         68   cdcmple.o
        48          0          0          0          0         68   cdrcmple.o
       334          0          0          0          0        148   dadd.o
       222          0          0          0          0        100   ddiv.o
       186          0          0          0          0        176   depilogue.o
        50          0          0          0          0         76   dfixui.o
        48          0          0          0          0         68   dfixul.o
        26          0          0          0          0         76   dfltui.o
       228          0          0          0          0         96   dmul.o
       162          0          0          0          0        100   dsqrt.o
        38          0          0          0          0         68   f2d.o

    ----------------------------------------------------------------------
      6046        148        136          4          0       4024   Library Totals
         4          0          3          0          0          0   (incl. Padding)

    ----------------------------------------------------------------------

      Code (inc. data)   RO Data    RW Data    ZI Data      Debug   Library Name

       122          0          0          0          0        148   m_wm.l
      4530        148        133          4          0       2832   mc_w.l
      1390          0          0          0          0       1044   mf_w.l

    ----------------------------------------------------------------------
      6046        148        136          4          0       4024   Library Totals

    ----------------------------------------------------------------------

==============================================================================


      Code (inc. data)   RO Data    RW Data    ZI Data      Debug   

    227096       5040     182336        956      87148    4437827   Grand Totals
    227096       5040     182336        308      87148    4437827   ELF Image Totals (compressed)
    227096       5040     182336        308          0          0   ROM Totals

==============================================================================

    Total RO  Size (Code + RO Data)               409432 ( 399.84kB)
    Total RW  Size (RW Data + ZI Data)             88104 (  86.04kB)
    Total ROM Size (Code + RO Data + RW Data)     409740 ( 400.14kB)

==============================================================================

